(lp0
I40209
aI40304
aI40402
aI40403
aI40404
aI40405
aI40406
aI40407
aI40408
aI40409
aI40501
aI40502
aI40503
aI40504
aI40505
aI40506
aI40507
aI40509
aI40510
aI40511
aI40512
aI40513
aI40515
aI40516
aI40517
aI40518
aI40519
aI40520
aI40521
a.