(lp0
I1
aI3
aI4
aI5
aI6
aI7
aI8
aI9
aI10
aI11
aI12
aI13
aI14
aI15
aI16
aI17
aI20
aI21
aI22
aI23
aI24
aI25
aI26
aI28
aI29
aI30
aI31
aI35
aI36
aI37
aI101
aI102
aI104
aI301
aI302
aI401
aI402
aI403
aI404
aI405
aI501
aI502
aI503
aI504
aI601
aI602
aI605
aI606
aI607
aI610
aI611
aI616
aI704
aI801
aI803
aI804
aI805
aI901
aI902
aI1001
aI1002
aI1003
aI1004
aI1005
aI1006
aI1101
aI1102
aI1104
aI1105
aI1106
aI1201
aI1202
aI1203
aI1204
aI1205
aI1206
aI1207
aI1301
aI1303
aI1304
aI1401
aI1402
aI1501
aI1502
aI1503
aI1601
aI1602
aI1603
aI1604
aI1605
aI1701
aI1702
aI1703
aI2102
aI2103
aI2104
aI2202
aI2204
aI2211
aI2301
aI2401
aI2402
aI2403
aI2404
aI2406
aI2506
aI2507
aI2508
aI2601
aI2602
aI2608
aI2801
aI2802
aI2901
aI2902
aI3002
aI3104
aI3501
aI3502
aI3503
aI3504
aI3505
aI3506
aI3601
aI3702
aI3703
aI3704
aI40209
aI40304
aI40402
aI40403
aI40404
aI40405
aI40406
aI40407
aI40408
aI40409
aI40501
aI40502
aI40503
aI40504
aI40505
aI40506
aI40507
aI40509
aI40510
aI40511
aI40512
aI40513
aI40515
aI40516
aI40517
aI40518
aI40519
aI40520
aI40521
a.