(lp0
I3672539
aI7016659
aI7582557
aI7744862
aI8180174
aI8257958
aI8430439
aI8987868
aI9319821
aI9398822
aI9403185
aI9534023
aI9558616
aI9730191
aI9808493
aI9831821
aI9831994
aI10237670
aI10239020
aI10343762
aI10367369
aI10465148
aI10486402
aI10619610
aI10620300
aI10835655
aI10864018
aI10960768
aI11045429
aI11103549
aI11125045
aI11226908
aI11266360
aI11271677
aI11305784
aI11342260
aI11399297
aI11419817
aI11490033
aI11494726
aI11512284
aI11691014
aI11692979
aI11706414
aI11735725
aI11833844
aI11949175
aI12002326
aI12033859
aI12094618
aI12094619
aI12094660
aI12119798
aI12128745
aI12129125
aI12144509
aI12148998
aI12149143
aI12205546
aI12206072
aI12206316
aI12216931
aI12218939
aI12230671
aI12264335
aI12289319
aI12303815
aI12323152
aI12361100
aI12375842
aI12414326
aI12428659
aI12429090
aI12429613
aI12457696
aI12458030
aI12478868
aI12513467
aI12525594
aI12526471
aI12558756
aI12559755
aI12619771
aI12620129
aI12626750
aI12640917
aI12644918
aI12644921
aI12675395
aI12676570
aI12680442
aI12733518
aI12762548
aI12800934
aI12877892
aI12877906
aI12877935
aI12922218
aI12962374
aI12968850
aI13003292
aI13011499
aI13011578
aI13039587
aI13052092
aI13124550
aI13152998
aI13197400
aI13221965
aI13244902
aI13252106
aI13271190
aI13282144
aI13353537
aI13466525
aI13475563
aI13476559
aI13530621
aI13568953
aI13568954
aI13585156
aI13595646
aI13600267
aI13600660
aI13634869
aI13674391
aI13680035
aI13688339
aI13729808
aI13730224
aI13736906
aI13744571
aI13745407
aI13753566
aI13815260
aI13837081
aI13841828
aI13868482
aI13868502
aI13868512
aI13882630
aI13888827
aI13935022
aI13966381
aI13966921
aI13973243
aI13976940
aI13994915
aI14042829
aI14044392
aI14060767
aI14060772
aI14060776
aI14060781
aI14060783
aI14117057
aI14188184
aI14213667
aI14222368
aI14238913
aI14256363
aI14263734
aI14263736
aI14263744
aI14263803
aI14271294
aI14280118
aI14280119
aI14286994
aI14294059
aI14306589
aI14306607
aI14306813
aI14306823
aI14306893
aI14333246
aI14373280
aI14389465
aI14418366
aI14424604
aI14447375
aI14453311
aI14453312
aI14458839
aI14458866
aI14464445
aI14464560
aI14483442
aI14484192
aI14484193
aI14484416
aI14499736
aI14511123
aI14517663
aI14565857
aI14565956
aI14566451
aI14566611
aI14585625
aI14587879
aI14591224
aI14593006
aI14604499
aI14604569
aI14609254
aI14614758
aI14620226
aI14632265
aI14633775
aI14646786
aI14672863
aI14724452
aI14731866
aI14732581
aI14732589
aI14732830
aI14732876
aI14734439
aI14753566
aI14757677
aI14759139
aI14761937
aI14798001
aI14800712
aI14820568
aI14856225
aI14881581
aI14960835
aI14967174
aI14994689
aI15075947
aI15087455
aI15171565
aI15173086
aI15182395
aI15224209
aI15224772
aI15227328
aI15230796
aI15230891
aI15230910
aI15273394
aI15274365
aI15277483
aI15292999
aI15293239
aI15293260
aI15309713
aI15314652
aI15345769
aI15350074
aI15350118
aI15350173
aI15352687
aI15360157
aI15365919
aI15391470
aI15395975
aI15423193
aI15424352
aI15424388
aI15424400
aI15448149
aI15455404
aI15461540
aI15461748
aI15471616
aI15473413
aI15474100
aI15475149
aI15475336
aI15475609
aI15485415
aI15525607
aI15526199
aI15539963
aI15552356
aI15552367
aI15552381
aI15554514
aI15554515
aI15554808
aI15554809
aI15611334
aI15611383
aI15611392
aI15617559
aI15687904
aI15706731
aI15711416
aI15711906
aI15725741
aI15740859
aI15751713
aI15753885
aI15754740
aI15755210
aI15762984
aI15779236
aI15782167
aI15818670
aI15825744
aI15834893
aI15837794
aI15837854
aI15838067
aI15839363
aI15845091
aI15858230
aI15859863
aI15871730
aI15919134
aI15923191
aI15925019
aI15925143
aI15925220
aI15925512
aI15925539
aI15925587
aI15925778
aI15925978
aI15925992
aI15930828
aI15931970
aI15934350
aI15935741
aI15936685
aI15936701
aI15942122
aI15947807
aI15953107
aI16003786
aI16003792
aI16008325
aI16017981
aI16024027
aI16027212
aI16033889
aI16037520
aI16037819
aI16042205
aI16100656
aI16153462
aI16220127
aI16274429
aI16283021
aI16294629
aI16294810
aI16296131
aI16314107
aI16315212
aI16320563
aI16323619
aI16352809
aI16360590
aI16375878
aI16375880
aI16384699
aI16387923
aI16388202
aI16388205
aI16388206
aI16388507
aI16391183
aI16414209
aI16434862
aI16436202
aI16476609
aI16477176
aI16484648
aI16484723
aI16493546
aI16494103
aI16507186
aI16543822
aI16572149
aI16572168
aI16595442
aI16649927
aI16657509
aI16659676
aI16660071
aI16662033
aI16663471
aI16663521
aI16666743
aI16682039
aI16682321
aI16682665
aI16682719
aI16696691
aI16718936
aI16720671
aI16720767
aI16731509
aI16732043
aI16732174
aI16741272
aI16744964
aI16770753
aI16775595
aI16780750
aI16787424
aI16788044
aI16794334
aI16804191
aI16804310
aI16809923
aI16812847
aI16813618
aI16823478
aI16823895
aI16899635
aI16903303
aI16909552
aI16911888
aI16911892
aI16911895
aI16921046
aI16921519
aI16965780
aI16965783
aI16972887
aI16981156
aI16995530
aI16996908
aI16997651
aI16998174
aI17023067
aI17023849
aI17027604
aI17075269
aI17114895
aI17123404
aI17123456
aI17123462
aI17162422
aI17163305
aI17179740
aI17179957
aI17180625
aI17186695
aI17187199
aI17187200
aI17189388
aI17213582
aI17216181
aI17227525
aI17236566
aI17242105
aI17242395
aI17249563
aI17275284
aI17286933
aI17289333
aI17297622
aI17299620
aI17346729
aI17348622
aI17352709
aI17353882
aI17357539
aI17359756
aI17363169
aI17370547
aI17375066
aI17396711
aI17405625
aI17408550
aI17408551
aI17412570
aI17412806
aI17418408
aI17419686
aI17420041
aI17420222
aI17421631
aI17425609
aI17429476
aI17437104
aI17469224
aI17474781
aI17486048
aI17545606
aI17545802
aI17547003
aI17549222
aI17549319
aI17551777
aI17555763
aI17557856
aI17569763
aI17570253
aI17570254
aI17570356
aI17571704
aI17597720
aI17599411
aI17603353
aI17610538
aI17612344
aI17612868
aI17613659
aI17614223
aI17615972
aI17634563
aI17653201
aI17654588
aI17658197
aI17665298
aI17665473
aI17670376
aI17673002
aI17680368
aI17685175
aI17701380
aI17703350
aI17715094
aI17715936
aI17718487
aI17721775
aI17728531
aI17729090
aI17734471
aI17737550
aI17739225
aI17739417
aI17739481
aI17740184
aI17748341
aI17753858
aI17757552
aI17760079
aI17762579
aI17765226
aI17766067
aI17767837
aI17771918
aI17776865
aI17790212
aI17791866
aI17792385
aI17793190
aI17793511
aI17795694
aI17800817
aI17804514
aI17806641
aI17807706
aI17810737
aI17812023
aI17815907
aI17816093
aI17816095
aI17816152
aI17816311
aI17816396
aI17817674
aI17822335
aI17827317
aI17827686
aI17828390
aI17836875
aI17836921
aI17837390
aI17838188
aI17841956
aI17843741
aI17844363
aI17846315
aI17846442
aI17850141
aI17851328
aI17858064
aI17858494
aI17860205
aI17861246
aI17861514
aI17861525
aI17863473
aI17871661
aI17871684
aI17872949
aI17873893
aI17876019
aI17879410
aI17883549
aI17885800
aI17885809
aI17889196
aI17889317
aI17889401
aI17891374
aI17897250
aI17899252
aI17903883
aI17904066
aI17913424
aI17914160
aI17914269
aI17921964
aI17998001
aI18000773
aI18000818
aI18000821
aI18001841
aI18035313
aI18070082
aI18070177
aI18071944
aI18077018
aI18077583
aI18084083
aI18084771
aI18091046
aI18095150
aI18096409
aI18123685
aI18124945
aI18128884
aI18129848
aI18131885
aI18138601
aI18139099
aI18139288
aI18139883
aI18142276
aI18145872
aI18146691
aI18149076
aI18149094
aI18149125
aI18150126
aI18151348
aI18183596
aI18184079
aI18186037
aI18186638
aI18186658
aI18186847
aI18187723
aI18189942
aI18193446
aI18194910
aI18198910
aI18200299
aI18203810
aI18204944
aI18205453
aI18206453
aI18207138
aI18212877
aI18213240
aI18225310
aI18225464
aI18225711
aI18226084
aI18226176
aI18226748
aI18227278
aI18229274
aI18232019
aI18232020
aI18232327
aI18233300
aI18233893
aI18233895
aI18238376
aI18242276
aI18242777
aI18246054
aI18246806
aI18247488
aI18253361
aI18254512
aI18258142
aI18260972
aI18271594
aI18276904
aI18282979
aI18288918
aI18297942
aI18299303
aI18307703
aI18307736
aI18314849
aI18316320
aI18337984
aI18340529
aI18341030
aI18345665
aI18346401
aI18347909
aI18350934
aI18359670
aI18386518
aI18392779
aI18392844
aI18393629
aI18434629
aI18435049
aI18435947
aI18440592
aI18440905
aI18441099
aI18443462
aI18446367
aI18448321
aI18448626
aI18449356
aI18450193
aI18450593
aI18452413
aI18454829
aI18458181
aI18458286
aI18463638
aI18463884
aI18467011
aI18489514
aI18489598
aI18494796
aI18498675
aI18499013
aI18499056
aI18500347
aI18504887
aI18505113
aI18505381
aI18506861
aI18507083
aI18507302
aI18509070
aI18509083
aI18509343
aI18509373
aI18510253
aI18517836
aI18521203
aI18525117
aI18525122
aI18528288
aI18538177
aI18538258
aI18538262
aI18538266
aI18538385
aI18542908
aI18543214
aI18543249
aI18543290
aI18543380
aI18543531
aI18543564
aI18543593
aI18543689
aI18547903
aI18548115
aI18548461
aI18549049
aI18549212
aI18549450
aI18549844
aI18549855
aI18549860
aI18551559
aI18551722
aI18554447
aI18555780
aI18558443
aI18564009
aI18564091
aI18565634
aI18565914
aI18566170
aI18567326
aI18569579
aI18569584
aI18572231
aI18572828
aI18572983
aI18573011
aI18573037
aI18573202
aI18573221
aI18578103
aI18578186
aI18583639
aI18583656
aI18583669
aI18597225
aI18598871
aI18600057
aI18603679
aI18605927
aI18608304
aI18608326
aI18608328
aI18608329
aI18609711
aI18615621
aI18622165
aI18622736
aI18623029
aI18623579
aI18625938
aI18626603
aI18629697
aI18631809
aI18633209
aI18633906
aI18633924
aI18634018
aI18636500
aI18638227
aI18638234
aI18638236
aI18647733
aI18648160
aI18649197
aI18651792
aI18657510
aI18658872
aI18661224
aI18668485
aI18670022
aI18670735
aI18670869
aI18671815
aI18675475
aI18678200
aI18682849
aI18684439
aI18684535
aI18706018
aI18706029
aI18707958
aI18707972
aI18708025
aI18708071
aI18708142
aI18708366
aI18708404
aI18708469
aI18708474
aI18708485
aI18708526
aI18708655
aI18731191
aI18739379
aI18749409
aI18749414
aI18749532
aI18750064
aI18752115
aI18752163
aI18752320
aI18755689
aI18758251
aI18758302
aI18758382
aI18761122
aI18765187
aI18766127
aI18768454
aI18768752
aI18768775
aI18768826
aI18771014
aI18771122
aI18772453
aI18773361
aI18774257
aI18774636
aI18774665
aI18775651
aI18775654
aI18777531
aI18778633
aI18782360
aI18796757
aI18797932
aI18801410
aI18801464
aI18802359
aI18803799
aI18803918
aI18805198
aI18807391
aI18807570
aI18807598
aI18807675
aI18808164
aI18811002
aI18811408
aI18811664
aI18813044
aI18815020
aI18815614
aI18818508
aI18820573
aI18820680
aI18820681
aI18821062
aI18821126
aI18821140
aI18821295
aI18822972
aI18823583
aI18825779
aI18825869
aI18827051
aI18827070
aI18827092
aI18827190
aI18827965
aI18828003
aI18828585
aI18829133
aI18829538
aI18835948
aI18836006
aI18837493
aI18837558
aI18838105
aI18838109
aI18852546
aI18852547
aI18852593
aI18852594
aI18852608
aI18853747
aI18854703
aI18861455
aI18861975
aI18863848
aI18865052
aI18865666
aI18870347
aI18875159
aI18875613
aI18875692
aI18876819
aI18878320
aI18880200
aI18880217
aI18880219
aI18880221
aI18882027
aI18887848
aI18891154
aI18891172
aI18891250
aI18891649
aI18891663
aI18909969
aI18914969
aI18915239
aI18930308
aI18935347
aI18935630
aI18937379
aI18938466
aI18944718
aI18946030
aI18946031
aI18946884
aI18949441
aI18949455
aI18950901
aI18950929
aI18950930
aI18952338
aI18952701
aI18953387
aI18954543
aI18970057
aI18970235
aI18972656
aI18979117
aI18979124
aI18979175
aI18979206
aI18979250
aI18979258
aI18979326
aI18988682
aI18994740
aI18998043
aI18998133
aI19000562
aI19001346
aI19007856
aI19008754
aI19014871
aI19015407
aI19017965
aI19018138
aI19019404
aI19019562
aI19019563
aI19019646
aI19019647
aI19019664
aI19019789
aI19019790
aI19019823
aI19020700
aI19021084
aI19021976
aI19022460
aI19026416
aI19027108
aI19031202
aI19045296
aI19046723
aI19059841
aI19063052
aI19069565
aI19071754
aI19075912
aI19076499
aI19078392
aI19078407
aI19088102
aI19091038
aI19091042
aI19091063
aI19094253
aI19094342
aI19094496
aI19097586
aI19106731
aI19117172
aI19118609
aI19119595
aI19121071
aI19121116
aI19122487
aI19122712
aI19123916
aI19127978
aI19133495
aI19134795
aI19135430
aI19141061
aI19143888
aI19147102
aI19150044
aI19157777
aI19164651
aI19166989
aI19168871
aI19169527
aI19177984
aI19178078
aI19179778
aI19181335
aI19181336
aI19181337
aI19181338
aI19181885
aI19186934
aI19187205
aI19187568
aI19191341
aI19193568
aI19194432
aI19195774
aI19196812
aI19197189
aI19198058
aI19200298
aI19200456
aI19201284
aI19201834
aI19202293
aI19203561
aI19203788
aI19203844
aI19206055
aI19220685
aI19223177
aI19223696
aI19226068
aI19232567
aI19235981
aI19237849
aI19239455
aI19239460
aI19240681
aI19240690
aI19241583
aI19243130
aI19243836
aI19244048
aI19244759
aI19245430
aI19246955
aI19248052
aI19250751
aI19253932
aI19254633
aI19255994
aI19263340
aI19264447
aI19264448
aI19264449
aI19271744
aI19271755
aI19272795
aI19280669
aI19282565
aI19282651
aI19282709
aI19282801
aI19282836
aI19282965
aI19283932
aI19284229
aI19284255
aI19284335
aI19284607
aI19295564
aI19297478
aI19297634
aI19298143
aI19301187
aI19304403
aI19314877
aI19315257
aI19315403
aI19316524
aI19317155
aI19319198
aI19320620
aI19326111
aI19328626
aI19328675
aI19329977
aI19331900
aI19337272
aI19339376
aI19339398
aI19340422
aI19340435
aI19340497
aI19340501
aI19340510
aI19340605
aI19341885
aI19341928
aI19343648
aI19344290
aI19345739
aI19346452
aI19346874
aI19346906
aI19347151
aI19348780
aI19348963
aI19357729
aI19361713
aI19361717
aI19361875
aI19361888
aI19361910
aI19362701
aI19362725
aI19363503
aI19364085
aI19364093
aI19364156
aI19364164
aI19364468
aI19365305
aI19366028
aI19367903
aI19369306
aI19369497
aI19369561
aI19369687
aI19370048
aI19371702
aI19376148
aI19376221
aI19384278
aI19385112
aI19385499
aI19385542
aI19385932
aI19386437
aI19390136
aI19402743
aI19405152
aI19407474
aI19408619
aI19412599
aI19412622
aI19413084
aI19413121
aI19414560
aI19414632
aI19415019
aI19416443
aI19417564
aI19417581
aI19417941
aI19421474
aI19421901
aI19422007
aI19422055
aI19422093
aI19423754
aI19425340
aI19427358
aI19427364
aI19428533
aI19429051
aI19437098
aI19437697
aI19438303
aI19440445
aI19440739
aI19441340
aI19442887
aI19442890
aI19443719
aI19445124
aI19446009
aI19446173
aI19447349
aI19448089
aI19448206
aI19448322
aI19448647
aI19449308
aI19449317
aI19451180
aI19451336
aI19452294
aI19453000
aI19453353
aI19453603
aI19454385
aI19454560
aI19455243
aI19456422
aI19465493
aI19465494
aI19466602
aI19467443
aI19467830
aI19467897
aI19468050
aI19468748
aI19470094
aI19474789
aI19475589
aI19475626
aI19476190
aI19476425
aI19476903
aI19477387
aI19477424
aI19477887
aI19478633
aI19478688
aI19479677
aI19480067
aI19480139
aI19480969
aI19481491
aI19484475
aI19484788
aI19485143
aI19485208
aI19493361
aI19494405
aI19495315
aI19497060
aI19501020
aI19502872
aI19503659
aI19503987
aI19504441
aI19504446
aI19505281
aI19505379
aI19505471
aI19505484
aI19505485
aI19505525
aI19505531
aI19505541
aI19506070
aI19506071
aI19506083
aI19506084
aI19506410
aI19506662
aI19519426
aI19521527
aI19522708
aI19523559
aI19524099
aI19524231
aI19525490
aI19526792
aI19528630
aI19534142
aI19540415
aI19560286
aI19563116
aI19564462
aI19564463
aI19564944
aI19569685
aI19598170
aI19610371
aI19616392
aI19616782
aI19623029
aI19639691
aI19641779
aI19641780
aI19642722
aI19657776
aI19657970
aI19659223
aI19662685
aI19662902
aI19664911
aI19677081
aI19680616
aI19688016
aI19688341
aI19692198
aI19692209
aI19692858
aI19696707
aI19710913
aI19710960
aI19711009
aI19712285
aI19712321
aI19712915
aI19713923
aI19716075
aI19718182
aI19718240
aI19719150
aI19720205
aI19720394
aI19721171
aI19721568
aI19721817
aI19722061
aI19722062
aI19722076
aI19722105
aI19722106
aI19722223
aI19722243
aI19722244
aI19722530
aI19722547
aI19723478
aI19723529
aI19723578
aI19724087
aI19724268
aI19724813
aI19725571
aI19725650
aI19725834
aI19725855
aI19726594
aI19726660
aI19727327
aI19727638
aI19729471
aI19729739
aI19729748
aI19732563
aI19735407
aI19736149
aI19742081
aI19742686
aI19742913
aI19742953
aI19744410
aI19744861
aI19744878
aI19744921
aI19745264
aI19745823
aI19746077
aI19747067
aI19751212
aI19752165
aI19752512
aI19753801
aI19753932
aI19755615
aI19757792
aI19757993
aI19759547
aI19761038
aI19761309
aI19762673
aI19762956
aI19763227
aI19763275
aI19763310
aI19763397
aI19763533
aI19766493
aI19768884
aI19772368
aI19775583
aI19778971
aI19780958
aI19781373
aI19782726
aI19783537
aI19783972
aI19786351
aI19786740
aI19786748
aI19786788
aI19786906
aI19787045
aI19787389
aI19789421
aI19793129
aI19793156
aI19794687
aI19796113
aI19798072
aI19798234
aI19799680
aI19800543
aI19800607
aI19801950
aI19803077
aI19803208
aI19803292
aI19804103
aI19804284
aI19804425
aI19806004
aI19806284
aI19806285
aI19807369
aI19807444
aI19807489
aI19807578
aI19808158
aI19809621
aI19809762
aI19810424
aI19811010
aI19811476
aI19812002
aI19812245
aI19812586
aI19812672
aI19812766
aI19812788
aI19812838
aI19813267
aI19813276
aI19815094
aI19815096
aI19815097
aI19815811
aI19833068
aI19834564
aI19835294
aI19835481
aI19836067
aI19836069
aI19836552
aI19836634
aI19836681
aI19837637
aI19837638
aI19838223
aI19839192
aI19839868
aI19840544
aI19842370
aI19842440
aI19842986
aI19844273
aI19844326
aI19844393
aI19845798
aI19845819
aI19845838
aI19849427
aI19849447
aI19849486
aI19849495
aI19851364
aI19852289
aI19853509
aI19853986
aI19854815
aI19855875
aI19855947
aI19856515
aI19856536
aI19858476
aI19859894
aI19860667
aI19860768
aI19861437
aI19862124
aI19862127
aI19863037
aI19863074
aI19863076
aI19863552
aI19863560
aI19863974
aI19864512
aI19864648
aI19864772
aI19880560
aI19880755
aI19881028
aI19881135
aI19882165
aI19882860
aI19883524
aI19883811
aI19883861
aI19884571
aI19884612
aI19884623
aI19884981
aI19884988
aI19885010
aI19885023
aI19885231
aI19885240
aI19885408
aI19885418
aI19885811
aI19885974
aI19888544
aI19889101
aI19889206
aI19890626
aI19891072
aI19891332
aI19892269
aI19893183
aI19893187
aI19893206
aI19893549
aI19894343
aI19894508
aI19894534
aI19894702
aI19894704
aI19895394
aI19895430
aI19895651
aI19898027
aI19898967
aI19899177
aI19904448
aI19904456
aI19905186
aI19907280
aI19908768
aI19908848
aI19908995
aI19909334
aI19909389
aI19909470
aI19911171
aI19911754
aI19911824
aI19913204
aI19913588
aI19913655
aI19913915
aI19914466
aI19914918
aI19916078
aI19925144
aI19925219
aI19926491
aI19928231
aI19929843
aI19929881
aI19943841
aI19952278
aI19953041
aI19953253
aI19954866
aI19969441
aI19971777
aI19972365
aI19973674
aI19973758
aI19974098
aI19974148
aI19975232
aI19976785
aI19976853
aI19977357
aI19977358
aI19977440
aI19977469
aI19977490
aI19977554
aI19977609
aI19977813
aI19981124
aI19982100
aI19982113
aI19986362
aI19990826
aI19992536
aI19993761
aI19994073
aI19994275
aI19994338
aI19998314
aI19999493
aI20000436
aI20003852
aI20003928
aI20005241
aI20005604
aI20007005
aI20017102
aI20022332
aI20025712
aI20027197
aI20027211
aI20028181
aI20033104
aI20034230
aI20034369
aI20037948
aI20041057
aI20041261
aI20044267
aI20044305
aI20044642
aI20047104
aI20047938
aI20048631
aI20048662
aI20051158
aI20051251
aI20052970
aI20055981
aI20056413
aI20056459
aI20056579
aI20057404
aI20059788
aI20060188
aI20060403
aI20060503
aI20062143
aI20064786
aI20064823
aI20067983
aI20069630
aI20069643
aI20070463
aI20070495
aI20070652
aI20071383
aI20072465
aI20074082
aI20075176
aI20075755
aI20076443
aI20076650
aI20077104
aI20077673
aI20083054
aI20083466
aI20083753
aI20083832
aI20084165
aI20084274
aI20084925
aI20085045
aI20085383
aI20085408
aI20085497
aI20087235
aI20087904
aI20087949
aI20090484
aI20091041
aI20091595
aI20091692
aI20091834
aI20091947
aI20092148
aI20092263
aI20092518
aI20092529
aI20093007
aI20093327
aI20093388
aI20093397
aI20093629
aI20094266
aI20094488
aI20094844
aI20094927
aI20095680
aI20096643
aI20096908
aI20097060
aI20097252
aI20097419
aI20097420
aI20098446
aI20099148
aI20099308
aI20099797
aI20099862
aI20099870
aI20099877
aI20100089
aI20103366
aI20104403
aI20104447
aI20104536
aI20105443
aI20105468
aI20118236
aI20118255
aI20118268
aI20118729
aI20119643
aI20120402
aI20120460
aI20121526
aI20122893
aI20123546
aI20124529
aI20127301
aI20127498
aI20131027
aI20133100
aI20133101
aI20133102
aI20134064
aI20134766
aI20136738
aI20136774
aI20138032
aI20138296
aI20138914
aI20138978
aI20139053
aI20139062
aI20139065
aI20139073
aI20139074
aI20139567
aI20139571
aI20139616
aI20140144
aI20140946
aI20141049
aI20141318
aI20141653
aI20142664
aI20143103
aI20143265
aI20143266
aI20144598
aI20145564
aI20145682
aI20145934
aI20146267
aI20146486
aI20146534
aI20146556
aI20146822
aI20146930
aI20147120
aI20147235
aI20147236
aI20147237
aI20147349
aI20148015
aI20148715
aI20148878
aI20150264
aI20150407
aI20150782
aI20151456
aI20151563
aI20152696
aI20153638
aI20153693
aI20154036
aI20154037
aI20154790
aI20155752
aI20155894
aI20156123
aI20156223
aI20157080
aI20157243
aI20157420
aI20157560
aI20157672
aI20157724
aI20157732
aI20158127
aI20158624
aI20158744
aI20158815
aI20158994
aI20160689
aI20160706
aI20160741
aI20160951
aI20161102
aI20161701
aI20162180
aI20162182
aI20162185
aI20169828
aI20173682
aI20173859
aI20174820
aI20174961
aI20175884
aI20176793
aI20176800
aI20176882
aI20177160
aI20177333
aI20177380
aI20177422
aI20179136
aI20179765
aI20180231
aI20180400
aI20180688
aI20182156
aI20182579
aI20182650
aI20182705
aI20182780
aI20182870
aI20182964
aI20183614
aI20184004
aI20184152
aI20184566
aI20186403
aI20186445
aI20187328
aI20188377
aI20188509
aI20188660
aI20191297
aI20191788
aI20193060
aI20193113
aI20193306
aI20193454
aI20194197
aI20194658
aI20195353
aI20195388
aI20195459
aI20199493
aI20199566
aI20200377
aI20200507
aI20201311
aI20201373
aI20201589
aI20201851
aI20202188
aI20202710
aI20203057
aI20203644
aI20203674
aI20203687
aI20203702
aI20203764
aI20203999
aI20204010
aI20204371
aI20204686
aI20204815
aI20205270
aI20205314
aI20205728
aI20205733
aI20206053
aI20206278
aI20206344
aI20206960
aI20207181
aI20207268
aI20207332
aI20207333
aI20208192
aI20208212
aI20208304
aI20208971
aI20209151
aI20209201
aI20209608
aI20210117
aI20210281
aI20210556
aI20210627
aI20210690
aI20210730
aI20211413
aI20212274
aI20212862
aI20212996
aI20215212
aI20232305
aI20238623
aI20240170
aI20240849
aI20241570
aI20241679
aI20241792
aI20242103
aI20242361
aI20243768
aI20246746
aI20248256
aI20255038
aI20255705
aI20255891
aI20256027
aI20256031
aI20256269
aI20256278
aI20257677
aI20259189
aI20261911
aI20262756
aI20262757
aI20262758
aI20262875
aI20267220
aI20267410
aI20268350
aI20270391
aI20273410
aI20273586
aI20273616
aI20273691
aI20273887
aI20275267
aI20275275
aI20276229
aI20276661
aI20277970
aI20277998
aI20278746
aI20280158
aI20281941
aI20282548
aI20283072
aI20283622
aI20284330
aI20284539
aI20284712
aI20284715
aI20284803
aI20284952
aI20285165
aI20285520
aI20285630
aI20286641
aI20286670
aI20286671
aI20286672
aI20288120
aI20288204
aI20288208
aI20288302
aI20288322
aI20288439
aI20288472
aI20288661
aI20288717
aI20289963
aI20290002
aI20290329
aI20290600
aI20291262
aI20291273
aI20291353
aI20291417
aI20291452
aI20291495
aI20291536
aI20292480
aI20292645
aI20293013
aI20294774
aI20294957
aI20295578
aI20295969
aI20295987
aI20296055
aI20297102
aI20298033
aI20298228
aI20298582
aI20298583
aI20298584
aI20298601
aI20298606
aI20298613
aI20298617
aI20298667
aI20298711
aI20298787
aI20298796
aI20298837
aI20298846
aI20298895
aI20298968
aI20299587
aI20299778
aI20301003
aI20301093
aI20301111
aI20301161
aI20301249
aI20301493
aI20301662
aI20301749
aI20302046
aI20302536
aI20302598
aI20302772
aI20302839
aI20303021
aI20303276
aI20303285
aI20303399
aI20303427
aI20303616
aI20303710
aI20303759
aI20304316
aI20304318
aI20304474
aI20304742
aI20304824
aI20304838
aI20304858
aI20305453
aI20305681
aI20306158
aI20306247
aI20306271
aI20306531
aI20306629
aI20306654
aI20306925
aI20307355
aI20307367
aI20307531
aI20307596
aI20307876
aI20307886
aI20307910
aI20309006
aI20309902
aI20309959
aI20315906
aI20317339
aI20318003
aI20318615
aI20318707
aI20318839
aI20319100
aI20319387
aI20319944
aI20320461
aI20321442
aI20321714
aI20321899
aI20321943
aI20321972
aI20322383
aI20322891
aI20323653
aI20324716
aI20325700
aI20325713
aI20326394
aI20326492
aI20326541
aI20326548
aI20326573
aI20326581
aI20326750
aI20326752
aI20326920
aI20327041
aI20328097
aI20328109
aI20328190
aI20328202
aI20328216
aI20330163
aI20330256
aI20331186
aI20331803
aI20332488
aI20333019
aI20333337
aI20333483
aI20334329
aI20334493
aI20334575
aI20334825
aI20334866
aI20335072
aI20335701
aI20335857
aI20335974
aI20336211
aI20336299
aI20336636
aI20336777
aI20337526
aI20337626
aI20337627
aI20337655
aI20338052
aI20338127
aI20338538
aI20338597
aI20338598
aI20338599
aI20338693
aI20340017
aI20340018
aI20340021
aI20340170
aI20340197
aI20340449
aI20340667
aI20341425
aI20341453
aI20341540
aI20341817
aI20342862
aI20342994
aI20343228
aI20343256
aI20343694
aI20344242
aI20344403
aI20344480
aI20344628
aI20344692
aI20345309
aI20345312
aI20345350
aI20345378
aI20345637
aI20345721
aI20345802
aI20345814
aI20346084
aI20346188
aI20346247
aI20346591
aI20346871
aI20347003
aI20347085
aI20347351
aI20348103
aI20348106
aI20348153
aI20348154
aI20348528
aI20348569
aI20348690
aI20348701
aI20348863
aI20348986
aI20348990
aI20349000
aI20349006
aI20349253
aI20349270
aI20349446
aI20349675
aI20350518
aI20350622
aI20350699
aI20350896
aI20351136
aI20351397
aI20351806
aI20352051
aI20352103
aI20352209
aI20352318
aI20352641
aI20352695
aI20352701
aI20352735
aI20352814
aI20352906
aI20353268
aI20353277
aI20353287
aI20353291
aI20353557
aI20353561
aI20353878
aI20353879
aI20353896
aI20353997
aI20354026
aI20354116
aI20355428
aI20355804
aI20356384
aI20356499
aI20356886
aI20356926
aI20357763
aI20359957
aI20360046
aI20360053
aI20360972
aI20365580
aI20365818
aI20367229
aI20367256
aI20368336
aI20369193
aI20369290
aI20369455
aI20369539
aI20370590
aI20370818
aI20370820
aI20370828
aI20372004
aI20372301
aI20372433
aI20373269
aI20373378
aI20373404
aI20373523
aI20374492
aI20374493
aI20374495
aI20374504
aI20374505
aI20375044
aI20375046
aI20375438
aI20375707
aI20376282
aI20376334
aI20377123
aI20377638
aI20377889
aI20378494
aI20378506
aI20378508
aI20379203
aI20379771
aI20379773
aI20379775
aI20379777
aI20379779
aI20379853
aI20380350
aI20380551
aI20381797
aI20382060
aI20382259
aI20382622
aI20383167
aI20383168
aI20383169
aI20383170
aI20386192
aI20386446
aI20386816
aI20387231
aI20387448
aI20387476
aI20391378
aI20391394
aI20391712
aI20392722
aI20393620
aI20394016
aI20394024
aI20394307
aI20394636
aI20394649
aI20394764
aI20395752
aI20396071
aI20396174
aI20397483
aI20397804
aI20398096
aI20398454
aI20398911
aI20399155
aI20399179
aI20399584
aI20399603
aI20400006
aI20400226
aI20401682
aI20401683
aI20402263
aI20402331
aI20402709
aI20402987
aI20403079
aI20403213
aI20403594
aI20403673
aI20403851
aI20403902
aI20403909
aI20403940
aI20403982
aI20404291
aI20404427
aI20404428
aI20404555
aI20405111
aI20405114
aI20405560
aI20405616
aI20405682
aI20405739
aI20405750
aI20406043
aI20406077
aI20406191
aI20406248
aI20406588
aI20406607
aI20406916
aI20407086
aI20407198
aI20407291
aI20407303
aI20407311
aI20407408
aI20407514
aI20407596
aI20407776
aI20407959
aI20408535
aI20408756
aI20408807
aI20408824
aI20408852
aI20410193
aI20410515
aI20411951
aI20412451
aI20413049
aI20414147
aI20414148
aI20414690
aI20414706
aI20420606
aI20422286
aI20425102
aI20425576
aI20425577
aI20425653
aI20426440
aI20426441
aI20426442
aI20426703
aI20426704
aI20426705
aI20428745
aI20429037
aI20429288
aI20429356
aI20430326
aI20430519
aI20430694
aI20430696
aI20431003
aI20431235
aI20431237
aI20431305
aI20431482
aI20431731
aI20432035
aI20432610
aI20432611
aI20432627
aI20432667
aI20432668
aI20432829
aI20432955
aI20433081
aI20433562
aI20433665
aI20434039
aI20434471
aI20434980
aI20434981
aI20435076
aI20435095
aI20435193
aI20435563
aI20435767
aI20435844
aI20435905
aI20435964
aI20437282
aI20437373
aI20437377
aI20437695
aI20437999
aI20438570
aI20439091
aI20439102
aI20440066
aI20440329
aI20440573
aI20440581
aI20440620
aI20440630
aI20440657
aI20440688
aI20440875
aI20440876
aI20441028
aI20442659
aI20442915
aI20443155
aI20443245
aI20444086
aI20445509
aI20445585
aI20445994
aI20446003
aI20446342
aI20446354
aI20446378
aI20446555
aI20447000
aI20447018
aI20447037
aI20447055
aI20447437
aI20447441
aI20447447
aI20447857
aI20447897
aI20447989
aI20448138
aI20448712
aI20449096
aI20449112
aI20449144
aI20449163
aI20449299
aI20449352
aI20449628
aI20449696
aI20450075
aI20450120
aI20450136
aI20450320
aI20450515
aI20450879
aI20451137
aI20451593
aI20451895
aI20451988
aI20451989
aI20452143
aI20452479
aI20452557
aI20452640
aI20452870
aI20453016
aI20453074
aI20453257
aI20453276
aI20453308
aI20453340
aI20453389
aI20453498
aI20453687
aI20454016
aI20454191
aI20455801
aI20456498
aI20456563
aI20456714
aI20456866
aI20456972
aI20457045
aI20457118
aI20457121
aI20457287
aI20457614
aI20458378
aI20458420
aI20458455
aI20458470
aI20458688
aI20459323
aI20459482
aI20459694
aI20459695
aI20459696
aI20459698
aI20460124
aI20460548
aI20460549
aI20460762
aI20460763
aI20460854
aI20460855
aI20461352
aI20462198
aI20462242
aI20462406
aI20463421
aI20463531
aI20463811
aI20463812
aI20463813
aI20463814
aI20465664
aI20466802
aI20469803
aI20471078
aI20471410
aI20471746
aI20471843
aI20472022
aI20472039
aI20472074
aI20473804
aI20473805
aI20473806
aI20473807
aI20474274
aI20474279
aI20474362
aI20474363
aI20475311
aI20475351
aI20475869
aI20475959
aI20476000
aI20476388
aI20477748
aI20478799
aI20480080
aI20480358
aI20480382
aI20480568
aI20480886
aI20480905
aI20481030
aI20481034
aI20481125
aI20481346
aI20481426
aI20481428
aI20482143
aI20482301
aI20482599
aI20483200
aI20485093
aI20485405
aI20485443
aI20485460
aI20485853
aI20486626
aI20488334
aI20489821
aI20490166
aI20490167
aI20490185
aI20490556
aI20491349
aI20491456
aI20493432
aI20493468
aI20493699
aI20494306
aI20494307
aI20494501
aI20494813
aI20494830
aI20495215
aI20495350
aI20495447
aI20495692
aI20496448
aI20497588
aI20497594
aI20498249
aI20498424
aI20498711
aI20498894
aI20500258
aI20500259
aI20500346
aI20500347
aI20500552
aI20500698
aI20500807
aI20500940
aI20500969
aI20501006
aI20501149
aI20501615
aI20502026
aI20502671
aI20502857
aI20503411
aI20503729
aI20504140
aI20504142
aI20504359
aI20504473
aI20504474
aI20504475
aI20504476
aI20504477
aI20504555
aI20504567
aI20504582
aI20505054
aI20505613
aI20505614
aI20505807
aI20505864
aI20506221
aI20506469
aI20506982
aI20507317
aI20507319
aI20507829
aI20508501
aI20508744
aI20508763
aI20509054
aI20509068
aI20509069
aI20509113
aI20509243
aI20509249
aI20509478
aI20510538
aI20510539
aI20511250
aI20511254
aI20512099
aI20513308
aI20514723
aI20514728
aI20514744
aI20514746
aI20516007
aI20516052
aI20517514
aI20517552
aI20517557
aI20519332
aI20524475
aI20525104
aI20525207
aI20525657
aI20525658
aI20525941
aI20526295
aI20526397
aI20526409
aI20529561
aI20529781
aI20529826
aI20530700
aI20530736
aI20531400
aI20531519
aI20533066
aI20533155
aI20533163
aI20533462
aI20533959
aI20534097
aI20535082
aI20535741
aI20535743
aI20535911
aI20536462
aI20537010
aI20537070
aI20537377
aI20537577
aI20538124
aI20540643
aI20545462
aI20546325
aI20546348
aI20552768
aI20554102
aI20554703
aI20555760
aI20556425
aI20556427
aI20556666
aI20557312
aI20558462
aI20558625
aI20560223
aI20560490
aI20560491
aI20560729
aI20560796
aI20560797
aI20560798
aI20562258
aI20568149
aI20568439
aI20568517
aI20571661
aI20571669
aI20571867
aI20573121
aI20574956
aI20577115
aI20578105
aI20578181
aI20578306
aI20578372
aI20578496
aI20578530
aI20578780
aI20579247
aI20579312
aI20579486
aI20580123
aI20580170
aI20580562
aI20581466
aI20581801
aI20581846
aI20582237
aI20582497
aI20582720
aI20582811
aI20582930
aI20583486
aI20583642
aI20583650
aI20583788
aI20583886
aI20583984
aI20584214
aI20584674
aI20584785
aI20584856
aI20585369
aI20585371
aI20585863
aI20585921
aI20585956
aI20585958
aI20585959
aI20585960
aI20585961
aI20585967
aI20585969
aI20585970
aI20586339
aI20586402
aI20586453
aI20586694
aI20587056
aI20587499
aI20587658
aI20588053
aI20589278
aI20589702
aI20589704
aI20589788
aI20590882
aI20591165
aI20591198
aI20591283
aI20591347
aI20592058
aI20592544
aI20592678
aI20593081
aI20593086
aI20593283
aI20593894
aI20594117
aI20594141
aI20595727
aI20595791
aI20595801
aI20596271
aI20596272
aI20596273
aI20596987
aI20597038
aI20597957
aI20598568
aI20598734
aI20599217
aI20599226
aI20599370
aI20599486
aI20599518
aI20599569
aI20599623
aI20599804
aI20599881
aI20599947
aI20599991
aI20600415
aI20600445
aI20600867
aI20601807
aI20601808
aI20602035
aI20602217
aI20602533
aI20602548
aI20602791
aI20602792
aI20602912
aI20603502
aI20603751
aI20604461
aI20604472
aI20604473
aI20604628
aI20605031
aI20605270
aI20605783
aI20605941
aI20606178
aI20607396
aI20607444
aI20607459
aI20607637
aI20607719
aI20607865
aI20608058
aI20608548
aI20608596
aI20608982
aI20609068
aI20609096
aI20609439
aI20609440
aI20609580
aI20610259
aI20610756
aI20610801
aI20610974
aI20610981
aI20611012
aI20611039
aI20611058
aI20611087
aI20611239
aI20611269
aI20611288
aI20611323
aI20611363
aI20611395
aI20611610
aI20611663
aI20612014
aI20612389
aI20612391
aI20612393
aI20612417
aI20612418
aI20612420
aI20612421
aI20612540
aI20612541
aI20612542
aI20612543
aI20612544
aI20612595
aI20612602
aI20612603
aI20612617
aI20612622
aI20612625
aI20612626
aI20612639
aI20612647
aI20612648
aI20612649
aI20612674
aI20612683
aI20612691
aI20612717
aI20612718
aI20612719
aI20612720
aI20612721
aI20612730
aI20612733
aI20612772
aI20612774
aI20613020
aI20613021
aI20613022
aI20613023
aI20613327
aI20613409
aI20613732
aI20613733
aI20613734
aI20613735
aI20613781
aI20613827
aI20613892
aI20613895
aI20614235
aI20614531
aI20615318
aI20615349
aI20615410
aI20615621
aI20615680
aI20616413
aI20617315
aI20618777
aI20622004
aI20622968
aI20623184
aI20623240
aI20623408
aI20623537
aI20623972
aI20625241
aI20626530
aI20626694
aI20627023
aI20627352
aI20627595
aI20627754
aI20628040
aI20628088
aI20629117
aI20629329
aI20629330
aI20629331
aI20630277
aI20630401
aI20630631
aI20630840
aI20630892
aI20630893
aI20630894
aI20631558
aI20632022
aI20632103
aI20632412
aI20632452
aI20632607
aI20632983
aI20633081
aI20633224
aI20633347
aI20633930
aI20634271
aI20634284
aI20634341
aI20634471
aI20634719
aI20634761
aI20635114
aI20635285
aI20635678
aI20635687
aI20635873
aI20635970
aI20636085
aI20636251
aI20636673
aI20637053
aI20637346
aI20637482
aI20637757
aI20637897
aI20638429
aI20639332
aI20639715
aI20639957
aI20639972
aI20640185
aI20640455
aI20640456
aI20640595
aI20640601
aI20640954
aI20641350
aI20642631
aI20642675
aI20643583
aI20644508
aI20644698
aI20645414
aI20647742
aI20648115
aI20648117
aI20648135
aI20648136
aI20648167
aI20648312
aI20648313
aI20648382
aI20648516
aI20648573
aI20648660
aI20649107
aI20649110
aI20649293
aI20649345
aI20649431
aI20649816
aI20650005
aI20650007
aI20650207
aI20650309
aI20650349
aI20650370
aI20650371
aI20650520
aI20650658
aI20651736
aI20651737
aI20651778
aI20652155
aI20653876
aI20655377
aI20655407
aI20656623
aI20657079
aI20657080
aI20657264
aI20657448
aI20657627
aI20657802
aI20660128
aI20660278
aI20660527
aI20660534
aI20660803
aI20660962
aI20660963
aI20660995
aI20661093
aI20661100
aI20661120
aI20661409
aI20661766
aI20662001
aI20662020
aI20662649
aI20662669
aI20662684
aI20662831
aI20662932
aI20662940
aI20662999
aI20663123
aI20663212
aI20663477
aI20663512
aI20663826
aI20663856
aI20663888
aI20664159
aI20664218
aI20664410
aI20664621
aI20665105
aI20665114
aI20665137
aI20665318
aI20665322
aI20665337
aI20665355
aI20665410
aI20665415
aI20665424
aI20665441
aI20665445
aI20665458
aI20665666
aI20665775
aI20666072
aI20666185
aI20666202
aI20666528
aI20666646
aI20668137
aI20668445
aI20668543
aI20668784
aI20668847
aI20668949
aI20668992
aI20669366
aI20669368
aI20669491
aI20669582
aI20670564
aI20670710
aI20670979
aI20670984
aI20672245
aI20672658
aI20675202
aI20680071
aI20680103
aI20680171
aI20680308
aI20681018
aI20681020
aI20681042
aI20681130
aI20681169
aI20681170
aI20681497
aI20681498
aI20681499
aI20681613
aI20681681
aI20682003
aI20682119
aI20682161
aI20682184
aI20682220
aI20682222
aI20682266
aI20682903
aI20683143
aI20683144
aI20683810
aI20683993
aI20684036
aI20684066
aI20684547
aI20684796
aI20684904
aI20685440
aI20685441
aI20685442
aI20685443
aI20685495
aI20685560
aI20685968
aI20686649
aI20686846
aI20686884
aI20687074
aI20687752
aI20687955
aI20687985
aI20688245
aI20688258
aI20688603
aI20688664
aI20688682
aI20688817
aI20689191
aI20689471
aI20689613
aI20689615
aI20690124
aI20690317
aI20690332
aI20690477
aI20690481
aI20690491
aI20690501
aI20690982
aI20691244
aI20691661
aI20691663
aI20691664
aI20692200
aI20692265
aI20692415
aI20692574
aI20692611
aI20692613
aI20692668
aI20693546
aI20693729
aI20694165
aI20694607
aI20695034
aI20695515
aI20695518
aI20695618
aI20695642
aI20695658
aI20697806
aI20697845
aI20698157
aI20698356
aI20698382
aI20700242
aI20700378
aI20700720
aI20700745
aI20700810
aI20700940
aI20701257
aI20701328
aI20701605
aI20701832
aI20702171
aI20702174
aI20702200
aI20702784
aI20704237
aI20704434
aI20704733
aI20704884
aI20705561
aI20705692
aI20706037
aI20706250
aI20706307
aI20706404
aI20706458
aI20706623
aI20706624
aI20706636
aI20706766
aI20706839
aI20707009
aI20707345
aI20707386
aI20707580
aI20707619
aI20707662
aI20707681
aI20708408
aI20708714
aI20709156
aI20709335
aI20709346
aI20709667
aI20709712
aI20710003
aI20710244
aI20710292
aI20710385
aI20710542
aI20711006
aI20711368
aI20711448
aI20711524
aI20711670
aI20712039
aI20712770
aI20712826
aI20713288
aI20713289
aI20713424
aI20713427
aI20713795
aI20713921
aI20714485
aI20714633
aI20714649
aI20714978
aI20715012
aI20715024
aI20715026
aI20715035
aI20715210
aI20715436
aI20715726
aI20715818
aI20715855
aI20716372
aI20716553
aI20716660
aI20716719
aI20716889
aI20716891
aI20716968
aI20717264
aI20718482
aI20719221
aI20719283
aI20719942
aI20719970
aI20719977
aI20720137
aI20720138
aI20720194
aI20720234
aI20720353
aI20720408
aI20720467
aI20720661
aI20720830
aI20720879
aI20721447
aI20721658
aI20721883
aI20721900
aI20722059
aI20722112
aI20722473
aI20723087
aI20723093
aI20723095
aI20723097
aI20723247
aI20723405
aI20723604
aI20723643
aI20723655
aI20723678
aI20723699
aI20723710
aI20723720
aI20723726
aI20723842
aI20723989
aI20724011
aI20724032
aI20724047
aI20724063
aI20724230
aI20724244
aI20724285
aI20724331
aI20724363
aI20724468
aI20724949
aI20724983
aI20724998
aI20725345
aI20725441
aI20726235
aI20726239
aI20726245
aI20726309
aI20726414
aI20726667
aI20726697
aI20726841
aI20727002
aI20729551
aI20729583
aI20729589
aI20729599
aI20729625
aI20729822
aI20730688
aI20731213
aI20731329
aI20731344
aI20731347
aI20731352
aI20737525
aI20738698
aI20739353
aI20740151
aI20740169
aI20740431
aI20740876
aI20741053
aI20741342
aI20741907
aI20741975
aI20742299
aI20742539
aI20742708
aI20742905
aI20743445
aI20743898
aI20744111
aI20744251
aI20744343
aI20744368
aI20744388
aI20744440
aI20744885
aI20744963
aI20745420
aI20746075
aI20746156
aI20746541
aI20746616
aI20746903
aI20746908
aI20747111
aI20747186
aI20747189
aI20747260
aI20747406
aI20747472
aI20748553
aI20748806
aI20748845
aI20749070
aI20749072
aI20749075
aI20749085
aI20749090
aI20749662
aI20750186
aI20750257
aI20750386
aI20750605
aI20751046
aI20751124
aI20751151
aI20751461
aI20751539
aI20751549
aI20751614
aI20751710
aI20751967
aI20752034
aI20752109
aI20752343
aI20752662
aI20753169
aI20753341
aI20753357
aI20753441
aI20753835
aI20754104
aI20754157
aI20754290
aI20754366
aI20754367
aI20754377
aI20754414
aI20754438
aI20754497
aI20754755
aI20754763
aI20754807
aI20755061
aI20755069
aI20755086
aI20755092
aI20755097
aI20755136
aI20755143
aI20755153
aI20755161
aI20755512
aI20755609
aI20755678
aI20755809
aI20756151
aI20756373
aI20756461
aI20757257
aI20757324
aI20757462
aI20757509
aI20758350
aI20758531
aI20759068
aI20759162
aI20761222
aI20761264
aI20761329
aI20761333
aI20761423
aI20761436
aI20761512
aI20761794
aI20761807
aI20761845
aI20761972
aI20762013
aI20762042
aI20762176
aI20762243
aI20762512
aI20763297
aI20763368
aI20763370
aI20763371
aI20763432
aI20763434
aI20763451
aI20763461
aI20763463
aI20763464
aI20763465
aI20764098
aI20764127
aI20764140
aI20764194
aI20764247
aI20764272
aI20764554
aI20764580
aI20765011
aI20765221
aI20765822
aI20765910
aI20766476
aI20766489
aI20766497
aI20766498
aI20766743
aI20767276
aI20767490
aI20767502
aI20767523
aI20767553
aI20767724
aI20767856
aI20768498
aI20768618
aI20769176
aI20769180
aI20769191
aI20769388
aI20769717
aI20769734
aI20769857
aI20769898
aI20770176
aI20770254
aI20770261
aI20770270
aI20770302
aI20770359
aI20770466
aI20770498
aI20770515
aI20770631
aI20771016
aI20771023
aI20771465
aI20771522
aI20771530
aI20771633
aI20771670
aI20771819
aI20771827
aI20771841
aI20771842
aI20771843
aI20771873
aI20771874
aI20771905
aI20771906
aI20772005
aI20772427
aI20772487
aI20772708
aI20772725
aI20772727
aI20772730
aI20772783
aI20773067
aI20773289
aI20773456
aI20773672
aI20773673
aI20773760
aI20773771
aI20773806
aI20773828
aI20773905
aI20773983
aI20774042
aI20774046
aI20775007
aI20775016
aI20775089
aI20775307
aI20775716
aI20775731
aI20775953
aI20775986
aI20776138
aI20777162
aI20777221
aI20777254
aI20777269
aI20777390
aI20777393
aI20777621
aI20777637
aI20777638
aI20778138
aI20778146
aI20778161
aI20778196
aI20778368
aI20778413
aI20778450
aI20778455
aI20778462
aI20779152
aI20779450
aI20779712
aI20779741
aI20780125
aI20780158
aI20780497
aI20780686
aI20780712
aI20780726
aI20780875
aI20780964
aI20781045
aI20781048
aI20781107
aI20781683
aI20781713
aI20781747
aI20781749
aI20781853
aI20781855
aI20781856
aI20781857
aI20782091
aI20782257
aI20782258
aI20782289
aI20782309
aI20782345
aI20782419
aI20782574
aI20782577
aI20782607
aI20782704
aI20783006
aI20783016
aI20783036
aI20783104
aI20783267
aI20783315
aI20783350
aI20783384
aI20783412
aI20783470
aI20783479
aI20783566
aI20783642
aI20783691
aI20783718
aI20783720
aI20783762
aI20783779
aI20783877
aI20783915
aI20784232
aI20784234
aI20784491
aI20784525
aI20784694
aI20784697
aI20784738
aI20784859
aI20784897
aI20784966
aI20784984
aI20784988
aI20785192
aI20785299
aI20785521
aI20785538
aI20785562
aI20785637
aI20785840
aI20785937
aI20785949
aI20786058
aI20786717
aI20787112
aI20787133
aI20787310
aI20787340
aI20788719
aI20788805
aI20788813
aI20789010
aI20789032
aI20789264
aI20793455
aI20794776
aI20796506
aI20801734
aI20802310
aI20803836
aI20804208
aI20804598
aI20805163
aI20805219
aI20805612
aI20805741
aI20805953
aI20806440
aI20806441
aI20806444
aI20806493
aI20806605
aI20806641
aI20806821
aI20806841
aI20806918
aI20807142
aI20807307
aI20807354
aI20807639
aI20808115
aI20808151
aI20808984
aI20809715
aI20809756
aI20809894
aI20810352
aI20812664
aI20814099
aI20814207
aI20814792
aI20814839
aI20815243
aI20815296
aI20816525
aI20816581
aI20816689
aI20816715
aI20817382
aI20818106
aI20818131
aI20818154
aI20818169
aI20818264
aI20818288
aI20818321
aI20818351
aI20818385
aI20818740
aI20818918
aI20819263
aI20819435
aI20819440
aI20819664
aI20820000
aI20820313
aI20820565
aI20820835
aI20821151
aI20821763
aI20822282
aI20822369
aI20822515
aI20822571
aI20822572
aI20822731
aI20822945
aI20822952
aI20823045
aI20823263
aI20823293
aI20823334
aI20823403
aI20823539
aI20823540
aI20823543
aI20823788
aI20823790
aI20823864
aI20823888
aI20824103
aI20824104
aI20824105
aI20824213
aI20824214
aI20824215
aI20824217
aI20824242
aI20824278
aI20824305
aI20824306
aI20824307
aI20824308
aI20824309
aI20824312
aI20824401
aI20824459
aI20824783
aI20824895
aI20824929
aI20825015
aI20825272
aI20825348
aI20825502
aI20825513
aI20825577
aI20825735
aI20825942
aI20826113
aI20826237
aI20826241
aI20826273
aI20826280
aI20826538
aI20827064
aI20827073
aI20827203
aI20827221
aI20827551
aI20827584
aI20827733
aI20828584
aI20828860
aI20828861
aI20828862
aI20828863
aI20828864
aI20828898
aI20829948
aI20829980
aI20830525
aI20830643
aI20830918
aI20830982
aI20831351
aI20831649
aI20831729
aI20831810
aI20831878
aI20831889
aI20832155
aI20832156
aI20832539
aI20832913
aI20832997
aI20833252
aI20833264
aI20833266
aI20833267
aI20833520
aI20833962
aI20834240
aI20834843
aI20835004
aI20835140
aI20835157
aI20835171
aI20835186
aI20835187
aI20835243
aI20835350
aI20835391
aI20835464
aI20835619
aI20835640
aI20835688
aI20835757
aI20835779
aI20835780
aI20835803
aI20835821
aI20835866
aI20835896
aI20835897
aI20835979
aI20836272
aI20836474
aI20836513
aI20836547
aI20836577
aI20836590
aI20836600
aI20836818
aI20836940
aI20837015
aI20837101
aI20837319
aI20837383
aI20837495
aI20837532
aI20837544
aI20837546
aI20837689
aI20837690
aI20838018
aI20838063
aI20838284
aI20838562
aI20838610
aI20838684
aI20838696
aI20838886
aI20839034
aI20839085
aI20839228
aI20839310
aI20839525
aI20839627
aI20840056
aI20840103
aI20840108
aI20840125
aI20840191
aI20840427
aI20840512
aI20840895
aI20840900
aI20841472
aI20841880
aI20841990
aI20842044
aI20842058
aI20842087
aI20842093
aI20842194
aI20842199
aI20842203
aI20842448
aI20842531
aI20842574
aI20842594
aI20842606
aI20842607
aI20842694
aI20842830
aI20843139
aI20843184
aI20843199
aI20843305
aI20843555
aI20843556
aI20843567
aI20843568
aI20843805
aI20843807
aI20843808
aI20843815
aI20843942
aI20844022
aI20844024
aI20844025
aI20844026
aI20844116
aI20844563
aI20844724
aI20844918
aI20844919
aI20844920
aI20844921
aI20844922
aI20844925
aI20844953
aI20845172
aI20845273
aI20845293
aI20845307
aI20845393
aI20845394
aI20845395
aI20845396
aI20845412
aI20845493
aI20845803
aI20845830
aI20845845
aI20845856
aI20845901
aI20845931
aI20845932
aI20845947
aI20845975
aI20846009
aI20846236
aI20846438
aI20846530
aI20846562
aI20846667
aI20846773
aI20846807
aI20846915
aI20847175
aI20847191
aI20847249
aI20847296
aI20847370
aI20847459
aI20847626
aI20847647
aI20847656
aI20847685
aI20847701
aI20847735
aI20847839
aI20847859
aI20847864
aI20847942
aI20847946
aI20848058
aI20848074
aI20848104
aI20848139
aI20848334
aI20848418
aI20848426
aI20848432
aI20848562
aI20848798
aI20848895
aI20848992
aI20848993
aI20849096
aI20849106
aI20849144
aI20849170
aI20849171
aI20849173
aI20849190
aI20849191
aI20849193
aI20849301
aI20849386
aI20849423
aI20849424
aI20849425
aI20849426
aI20849472
aI20849640
aI20849671
aI20849705
aI20849819
aI20849841
aI20849855
aI20849894
aI20849903
aI20849942
aI20849965
aI20850013
aI20850028
aI20850030
aI20850223
aI20850224
aI20850225
aI20850226
aI20850368
aI20850375
aI20850388
aI20850412
aI20850449
aI20850464
aI20850474
aI20850552
aI20851582
aI20851785
aI20851865
aI20851874
aI20851893
aI20851927
aI20852232
aI20852287
aI20852288
aI20852318
aI20852342
aI20852498
aI20852542
aI20852725
aI20852947
aI20853186
aI20853237
aI20853385
aI20853423
aI20853473
aI20854057
aI20854105
aI20854235
aI20854578
aI20855333
aI20855484
aI20855527
aI20855540
aI20855667
aI20855760
aI20855807
aI20856074
aI20856084
aI20856090
aI20856091
aI20856105
aI20856115
aI20856116
aI20856123
aI20856158
aI20856183
aI20856236
aI20856449
aI20856455
aI20856483
aI20856484
aI20856518
aI20856570
aI20856867
aI20856880
aI20857013
aI20857164
aI20857267
aI20857375
aI20857391
aI20857395
aI20857396
aI20858161
aI20858274
aI20858277
aI20858499
aI20858524
aI20858664
aI20858699
aI20858759
aI20858796
aI20859000
aI20860481
aI20861956
aI20863598
aI20864176
aI20864908
aI20865234
aI20865660
aI20865676
aI20865702
aI20865864
aI20865869
aI20868646
aI20872655
aI20872656
aI20872657
aI20872761
aI20872762
aI20872763
aI20872871
aI20872872
aI20875727
aI20875728
aI20876144
aI20876941
aI20877409
aI20877989
aI20878018
aI20878171
aI20878228
aI20878778
aI20878819
aI20879033
aI20879193
aI20879953
aI20880771
aI20880893
aI20880918
aI20881422
aI20881431
aI20881825
aI20883141
aI20883336
aI20883555
aI20883912
aI20883913
aI20884185
aI20884289
aI20884721
aI20884823
aI20885298
aI20885319
aI20886134
aI20886239
aI20886350
aI20886353
aI20886364
aI20887398
aI20887528
aI20887538
aI20887539
aI20888036
aI20888896
aI20888899
aI20890186
aI20890876
aI20891148
aI20891177
aI20891214
aI20891247
aI20891378
aI20891819
aI20891820
aI20892243
aI20892967
aI20892969
aI20894311
aI20894852
aI20896377
aI20896392
aI20896777
aI20899331
aI20901530
aI20901531
aI20901532
aI20902369
aI20902379
aI20903194
aI20903198
aI20904258
aI20905561
aI20911698
aI20913122
aI20913326
aI20913817
aI20914912
aI20915139
aI20915683
aI20916202
aI20916721
aI20919232
aI20919233
aI20920451
aI20921305
aI20921353
aI20921384
aI20921504
aI20921505
aI20921904
aI20921929
aI20921938
aI20922160
aI20922172
aI20922613
aI20922619
aI20922639
aI20923025
aI20923036
aI20923070
aI20923108
aI20924336
aI20924355
aI20924359
aI20924361
aI20924473
aI20924562
aI20924579
aI20924825
aI20924833
aI20925136
aI20925869
aI20926038
aI20926215
aI20926241
aI20927400
aI20928814
aI20930709
aI20932392
aI20932540
aI20932678
aI20932687
aI20932688
aI20933350
aI20933489
aI20933731
aI20934439
aI20934880
aI20934892
aI20934905
aI20937136
aI20941047
aI20947116
aI20947278
aI20947393
aI20947575
aI20947584
aI20947627
aI20947762
aI20947914
aI20947934
aI20948511
aI20948937
aI20949165
aI20949203
aI20949394
aI20949419
aI20949621
aI20949637
aI20949677
aI20949678
aI20949683
aI20949712
aI20949771
aI20949828
aI20949829
aI20949848
aI20950025
aI20950032
aI20950033
aI20950140
aI20950150
aI20950217
aI20950225
aI20950267
aI20950395
aI20950864
aI20951082
aI20951173
aI20951335
aI20952250
aI20952251
aI20952417
aI20952681
aI20953325
aI20953504
aI20953606
aI20954928
aI20955856
aI20955861
aI20955929
aI20956031
aI20956118
aI20956195
aI20956259
aI20956788
aI20957025
aI20957026
aI20957029
aI20957041
aI20957130
aI20957426
aI20957491
aI20957934
aI20958106
aI20958298
aI20958465
aI20958568
aI20958611
aI20958807
aI20958808
aI20958824
aI20958888
aI20959210
aI20959371
aI20959472
aI20959571
aI20959577
aI20959601
aI20959606
aI20959768
aI20959793
aI20959861
aI20959894
aI20960422
aI20961067
aI20961092
aI20961124
aI20961159
aI20961168
aI20961210
aI20961240
aI20961343
aI20961471
aI20961545
aI20961568
aI20961590
aI20961603
aI20961633
aI20961646
aI20961674
aI20961711
aI20961952
aI20962084
aI20962085
aI20962104
aI20962143
aI20962201
aI20962270
aI20962291
aI20962377
aI20962502
aI20962623
aI20962635
aI20962793
aI20962808
aI20962976
aI20963011
aI20963410
aI20963415
aI20963494
aI20963500
aI20963560
aI20963563
aI20963599
aI20963618
aI20963712
aI20963739
aI20963808
aI20963817
aI20963829
aI20963842
aI20963896
aI20963929
aI20963938
aI20963946
aI20964050
aI20964082
aI20964093
aI20964362
aI20964398
aI20964421
aI20964471
aI20964497
aI20964791
aI20964949
aI20964951
aI20964967
aI20965009
aI20965506
aI20965530
aI20965535
aI20965696
aI20965697
aI20965914
aI20965959
aI20966048
aI20966098
aI20966133
aI20966288
aI20966773
aI20966794
aI20966949
aI20966966
aI20967269
aI20967302
aI20967327
aI20967378
aI20967502
aI20967608
aI20967609
aI20967630
aI20967661
aI20967663
aI20967745
aI20967934
aI20968009
aI20968786
aI20968963
aI20969052
aI20969126
aI20969194
aI20970165
aI20970176
aI20970178
aI20970179
aI20970180
aI20970197
aI20970230
aI20970248
aI20970599
aI20970615
aI20970645
aI20970651
aI20970685
aI20970690
aI20970905
aI20970917
aI20971013
aI20971028
aI20971040
aI20971360
aI20971446
aI20971601
aI20971609
aI20971614
aI20971825
aI20971828
aI20971887
aI20971907
aI20971923
aI20971927
aI20971929
aI20971944
aI20971983
aI20972016
aI20972044
aI20972045
aI20972066
aI20972069
aI20972562
aI20972934
aI20973242
aI20973252
aI20973275
aI20973624
aI20973760
aI20974518
aI20974632
aI20974675
aI20974690
aI20974835
aI20975208
aI20975210
aI20975254
aI20975382
aI20975384
aI20975697
aI20975842
aI20975926
aI20976466
aI20976504
aI20976525
aI20976529
aI20976570
aI20976574
aI20976793
aI20976842
aI20976893
aI20976909
aI20976999
aI20977135
aI20977189
aI20977445
aI20977530
aI20977541
aI20977567
aI20977578
aI20977583
aI20977600
aI20977636
aI20978867
aI20979042
aI20979043
aI20979044
aI20979046
aI20979386
aI20979553
aI20979597
aI20980032
aI20980315
aI20980757
aI20980871
aI20981147
aI20981188
aI20981329
aI20981350
aI20981363
aI20981382
aI20981503
aI20981523
aI20981528
aI20981621
aI20981827
aI20982003
aI20982183
aI20982206
aI20982243
aI20982271
aI20982566
aI20982677
aI20982699
aI20982740
aI20982799
aI20982869
aI20982931
aI20982972
aI20983002
aI20983082
aI20983253
aI20983402
aI20983405
aI20983440
aI20983455
aI20983553
aI20983811
aI20983816
aI20983950
aI20983951
aI20983970
aI20984044
aI20984124
aI20984207
aI20984284
aI20984383
aI20984607
aI20984616
aI20984638
aI20984716
aI20984774
aI20984776
aI20985175
aI20985248
aI20985386
aI20985487
aI20985521
aI20985552
aI20985573
aI20985615
aI20985716
aI20985717
aI20985753
aI20985754
aI20985759
aI20985767
aI20985772
aI20985773
aI20985774
aI20985775
aI20985779
aI20985781
aI20985785
aI20985786
aI20985787
aI20985898
aI20985899
aI20985949
aI20986052
aI20986092
aI20986115
aI20986139
aI20986186
aI20986196
aI20986198
aI20986282
aI20986292
aI20986309
aI20986313
aI20986315
aI20986316
aI20986319
aI20986326
aI20986359
aI20986477
aI20986500
aI20986504
aI20986528
aI20986561
aI20986563
aI20986652
aI20986680
aI20986733
aI20986857
aI20987114
aI20987148
aI20987192
aI20987227
aI20987228
aI20987260
aI20987300
aI20987314
aI20987490
aI20987602
aI20987655
aI20987721
aI20987757
aI20987800
aI20987946
aI20988011
aI20988153
aI20988155
aI20988182
aI20988186
aI20988208
aI20988278
aI20988289
aI20988302
aI20988329
aI20988332
aI20988349
aI20988351
aI20988353
aI20988402
aI20988428
aI20988429
aI20988449
aI20988457
aI20988698
aI20988779
aI20988781
aI20988789
aI20988803
aI20988812
aI20988855
aI20988874
aI20988878
aI20988888
aI20988937
aI20988939
aI20988972
aI20988973
aI20988984
aI20989013
aI20989058
aI20989108
aI20989152
aI20989153
aI20989156
aI20989183
aI20989285
aI20989291
aI20989294
aI20989317
aI20989352
aI20989362
aI20989659
aI20989828
aI20990003
aI20990051
aI20990182
aI20990243
aI20990269
aI20990291
aI20990415
aI20990461
aI20990496
aI20990553
aI20990571
aI20990601
aI20990604
aI20990616
aI20990617
aI20990618
aI20990634
aI20990655
aI20990732
aI20990738
aI20990811
aI20990813
aI20990865
aI20990880
aI20990910
aI20990925
aI20990957
aI20990968
aI20990977
aI20990979
aI20990983
aI20991044
aI20991103
aI20991107
aI20991109
aI20991160
aI20991167
aI20991183
aI20991186
aI20991201
aI20991234
aI20991323
aI20991370
aI20991378
aI20991497
aI20991539
aI20991617
aI20991624
aI20991626
aI20991656
aI20991682
aI20991685
aI20991735
aI20991779
aI20991782
aI20991792
aI20991813
aI20991842
aI20991862
aI20991868
aI20991883
aI20991969
aI20991994
aI20992083
aI20992186
aI20992212
aI20992232
aI20992259
aI20992266
aI20992267
aI20992317
aI20992367
aI20992522
aI20992547
aI20992555
aI20992566
aI20992596
aI20992618
aI20992623
aI20992632
aI20992645
aI20992670
aI20992684
aI20992691
aI20992695
aI20992708
aI20992849
aI20992910
aI20993033
aI20993054
aI20993078
aI20993111
aI20993123
aI20993214
aI20993274
aI20993336
aI20993393
aI20993572
aI20993683
aI20993712
aI20993773
aI20993807
aI20993817
aI20993831
aI20993875
aI20993876
aI20994000
aI20994073
aI20994093
aI20994129
aI20994188
aI20994281
aI20994287
aI20994294
aI20994349
aI20994354
aI20994394
aI20994402
aI20994412
aI20994434
aI20994441
aI20994464
aI20994476
aI20994496
aI20994536
aI20994561
aI20994663
aI20994668
aI20994682
aI20994699
aI20994729
aI20994749
aI20994797
aI20994890
aI20994997
aI20995095
aI20995310
aI20995388
aI20995389
aI20995390
aI20995391
aI20995426
aI20995479
aI20995508
aI20995534
aI20995588
aI20995706
aI20995762
aI20995792
aI20995874
aI20995879
aI20995899
aI20995901
aI20995929
aI20995930
aI20995934
aI20995945
aI20996063
aI20996064
aI20996157
aI20996358
aI20996435
aI20996613
aI20996697
aI20996702
aI20996751
aI20996823
aI20996839
aI20996846
aI20996869
aI20996885
aI20996893
aI20996915
aI20996941
aI20996952
aI20996960
aI20997149
aI20997168
aI20997202
aI20997291
aI20997312
aI20997378
aI20997400
aI20997464
aI20997609
aI20997626
aI20997659
aI20997703
aI20997704
aI20997737
aI20997772
aI20997814
aI20997823
aI20997844
aI20997872
aI20997876
aI20997884
aI20997886
aI20998049
aI20998080
aI20998141
aI20998151
aI20998160
aI20998198
aI20998199
aI20998419
aI20998444
aI20998484
aI20998492
aI20998566
aI20998575
aI20998593
aI20998696
aI20999020
aI20999038
aI20999068
aI20999083
aI20999126
aI20999207
aI20999229
aI20999238
aI20999402
aI20999528
aI20999715
aI20999727
aI20999755
aI20999766
aI20999771
aI20999781
aI20999811
aI20999841
aI20999885
aI20999962
aI20999963
aI21000032
aI21000054
aI21000055
aI21000056
aI21000065
aI21000080
aI21000096
aI21000100
aI21000115
aI21000186
aI21000248
aI21000357
aI21000679
aI21000688
aI21000721
aI21000742
aI21000804
aI21000823
aI21000937
aI21000944
aI21000980
aI21001168
aI21001277
aI21001324
aI21001401
aI21001424
aI21001452
aI21001480
aI21001882
aI21001887
aI21001917
aI21002316
aI21002597
aI21002598
aI21002692
aI21002694
aI21002707
aI21002721
aI21002729
aI21002934
aI21003038
aI21003040
aI21003068
aI21003226
aI21003227
aI21003228
aI21003229
aI21003230
aI21003232
aI21003233
aI21003234
aI21003235
aI21003257
aI21003258
aI21003273
aI21003588
aI21004576
aI21005053
aI21005065
aI21005163
aI21005175
aI21005178
aI21005538
aI21005689
aI21005810
aI21005813
aI21005814
aI21005947
aI21005948
aI21005949
aI21005950
aI21006007
aI21006030
aI21006033
aI21006281
aI21006299
aI21006339
aI21006421
aI21006456
aI21006463
aI21006467
aI21006904
aI21006909
aI21006994
aI21007078
aI21007084
aI21007093
aI21007189
aI21007202
aI21007207
aI21007225
aI21007295
aI21007309
aI21007316
aI21007332
aI21007432
aI21009270
aI21009280
aI21009350
aI21009351
aI21009352
aI21010854
aI21014845
aI21015555
aI21015837
aI21015962
aI21016017
aI21016318
aI21016344
aI21016476
aI21016540
aI21016544
aI21016545
aI21016590
aI21016665
aI21016775
aI21016933
aI21016951
aI21016952
aI21016964
aI21016970
aI21017011
aI21017060
aI21017103
aI21017170
aI21017172
aI21017355
aI21017447
aI21017452
aI21017545
aI21017621
aI21017676
aI21017733
aI21017896
aI21017910
aI21017921
aI21017999
aI21018036
aI21018069
aI21018081
aI21018088
aI21018357
aI21018377
aI21018388
aI21018412
aI21018447
aI21018468
aI21018477
aI21018498
aI21018579
aI21018616
aI21018621
aI21018636
aI21018655
aI21018656
aI21018665
aI21018670
aI21018747
aI21019054
aI21019067
aI21019072
aI21019075
aI21019118
aI21019272
aI21019284
aI21019317
aI21019337
aI21019504
aI21019559
aI21019560
aI21019561
aI21019562
aI21019570
aI21019767
aI21019776
aI21019778
aI21019786
aI21019960
aI21020033
aI21020035
aI21020039
aI21020051
aI21020287
aI21020376
aI21020385
aI21020490
aI21020588
aI21020626
aI21020655
aI21020738
aI21020752
aI21020778
aI21020801
aI21020845
aI21020872
aI21020894
aI21020967
aI21021078
aI21021168
aI21021265
aI21021278
aI21021298
aI21021377
aI21021393
aI21021424
aI21021442
aI21021510
aI21021561
aI21021659
aI21021818
aI21021986
aI21022071
aI21022137
aI21022168
aI21022180
aI21022268
aI21022281
aI21022674
aI21022684
aI21023087
aI21023174
aI21023492
aI21023775
aI21023973
aI21024028
aI21024124
aI21024241
aI21024251
aI21024259
aI21024278
aI21024333
aI21024504
aI21024542
aI21024543
aI21024609
aI21024882
aI21024883
aI21024942
aI21025115
aI21025175
aI21025199
aI21025254
aI21025293
aI21025294
aI21025299
aI21025514
aI21025628
aI21025691
aI21025885
aI21025948
aI21026007
aI21026008
aI21026036
aI21026152
aI21026171
aI21026340
aI21026362
aI21026403
aI21026514
aI21026587
aI21026630
aI21026637
aI21026638
aI21026640
aI21026696
aI21026943
aI21026985
aI21027021
aI21027044
aI21027125
aI21027129
aI21027215
aI21027263
aI21027316
aI21027344
aI21027358
aI21027378
aI21027417
aI21027418
aI21027637
aI21027831
aI21027938
aI21027960
aI21027963
aI21028005
aI21028020
aI21028041
aI21028056
aI21028058
aI21028072
aI21028073
aI21028116
aI21028139
aI21028181
aI21028227
aI21028301
aI21028302
aI21028616
aI21028900
aI21028907
aI21028916
aI21028920
aI21028923
aI21029010
aI21029106
aI21029129
aI21029146
aI21029418
aI21029420
aI21029531
aI21029540
aI21029591
aI21029596
aI21029601
aI21029639
aI21029676
aI21029678
aI21029697
aI21029707
aI21029860
aI21029868
aI21029936
aI21030214
aI21030360
aI21030368
aI21030369
aI21030372
aI21030392
aI21030426
aI21030483
aI21030497
aI21030498
aI21030686
aI21030696
aI21030705
aI21030732
aI21030737
aI21030757
aI21030781
aI21030815
aI21030816
aI21030817
aI21030819
aI21030830
aI21030896
aI21030911
aI21030912
aI21030949
aI21030965
aI21030981
aI21030991
aI21031031
aI21031056
aI21031125
aI21031405
aI21031599
aI21031772
aI21032040
aI21032196
aI21032270
aI21032284
aI21032381
aI21032871
aI21033083
aI21033118
aI21033120
aI21033125
aI21033170
aI21033178
aI21033213
aI21033220
aI21033307
aI21033318
aI21033430
aI21033432
aI21033433
aI21033434
aI21033435
aI21033436
aI21033461
aI21033923
aI21033956
aI21033987
aI21034113
aI21034117
aI21034132
aI21034164
aI21034390
aI21034398
aI21034632
aI21034656
aI21034774
aI21034859
aI21034891
aI21034992
aI21035044
aI21035129
aI21035188
aI21035201
aI21035245
aI21035263
aI21035282
aI21035291
aI21035292
aI21035297
aI21035298
aI21035299
aI21035332
aI21035362
aI21035416
aI21035459
aI21035462
aI21035489
aI21035504
aI21035518
aI21035550
aI21035557
aI21035619
aI21035918
aI21035983
aI21036134
aI21036163
aI21036310
aI21036450
aI21036481
aI21036769
aI21036870
aI21036873
aI21036960
aI21037060
aI21037197
aI21037256
aI21037265
aI21037266
aI21037299
aI21037477
aI21037478
aI21037488
aI21037516
aI21037525
aI21037581
aI21037621
aI21037623
aI21037626
aI21037712
aI21037757
aI21037759
aI21037761
aI21037763
aI21037801
aI21037821
aI21037830
aI21038005
aI21038138
aI21038140
aI21038269
aI21038344
aI21038350
aI21038365
aI21038396
aI21038405
aI21038414
aI21038430
aI21038434
aI21038454
aI21038575
aI21038685
aI21038687
aI21038764
aI21038788
aI21038869
aI21038874
aI21038961
aI21038999
aI21039198
aI21039335
aI21039370
aI21039372
aI21039425
aI21039426
aI21039427
aI21039428
aI21039435
aI21039437
aI21039478
aI21039503
aI21039773
aI21039975
aI21040293
aI21040338
aI21040352
aI21040360
aI21040409
aI21040503
aI21040555
aI21040565
aI21040567
aI21040598
aI21040607
aI21040718
aI21040747
aI21040907
aI21040915
aI21040975
aI21041024
aI21041291
aI21041355
aI21041366
aI21041392
aI21041420
aI21041546
aI21041558
aI21041644
aI21041736
aI21041785
aI21041787
aI21041790
aI21041928
aI21041943
aI21041944
aI21041951
aI21041977
aI21041979
aI21042033
aI21042034
aI21042167
aI21042326
aI21042354
aI21042389
aI21042400
aI21042479
aI21042513
aI21042532
aI21042564
aI21042651
aI21042791
aI21042799
aI21042862
aI21042890
aI21042923
aI21043360
aI21043603
aI21043678
aI21043708
aI21044025
aI21044081
aI21044257
aI21044258
aI21044292
aI21044310
aI21044359
aI21044387
aI21044388
aI21044489
aI21044904
aI21045008
aI21045038
aI21045055
aI21045103
aI21045157
aI21045253
aI21045258
aI21045309
aI21045331
aI21045338
aI21045368
aI21045494
aI21045571
aI21045585
aI21045653
aI21045655
aI21045674
aI21045755
aI21045764
aI21045864
aI21045969
aI21045973
aI21045984
aI21045985
aI21045992
aI21045998
aI21046000
aI21046023
aI21046024
aI21046030
aI21046042
aI21046068
aI21046075
aI21046137
aI21046177
aI21046261
aI21046294
aI21046462
aI21046511
aI21046520
aI21046559
aI21046573
aI21046576
aI21046629
aI21046658
aI21046666
aI21046684
aI21046769
aI21046794
aI21046972
aI21047118
aI21047440
aI21047449
aI21047527
aI21047712
aI21047717
aI21047922
aI21047944
aI21048116
aI21048177
aI21048217
aI21048350
aI21048355
aI21048436
aI21048452
aI21048490
aI21048511
aI21048522
aI21048544
aI21048636
aI21048639
aI21048675
aI21048703
aI21048839
aI21048904
aI21049064
aI21049067
aI21049073
aI21049092
aI21049105
aI21049121
aI21049143
aI21049189
aI21049210
aI21049212
aI21049381
aI21049387
aI21049481
aI21049499
aI21049543
aI21049581
aI21049649
aI21049676
aI21049775
aI21049861
aI21050069
aI21050070
aI21050071
aI21050075
aI21050076
aI21050077
aI21050078
aI21050079
aI21050092
aI21050186
aI21050246
aI21050339
aI21050343
aI21050374
aI21050485
aI21050596
aI21050598
aI21050611
aI21050693
aI21050813
aI21050818
aI21050822
aI21050845
aI21050890
aI21050932
aI21050955
aI21051000
aI21051036
aI21051053
aI21051060
aI21051167
aI21051178
aI21051253
aI21051266
aI21051267
aI21051269
aI21051426
aI21051437
aI21051460
aI21051465
aI21051481
aI21051482
aI21051499
aI21051500
aI21051502
aI21051550
aI21051574
aI21051583
aI21051610
aI21051802
aI21051861
aI21051933
aI21051937
aI21051940
aI21051944
aI21052058
aI21052086
aI21052142
aI21052146
aI21052164
aI21052184
aI21052186
aI21052235
aI21052260
aI21052261
aI21052275
aI21052309
aI21052347
aI21052369
aI21052413
aI21052432
aI21052475
aI21052476
aI21052495
aI21052538
aI21052695
aI21052724
aI21052725
aI21052726
aI21052727
aI21052728
aI21052740
aI21052748
aI21052775
aI21052817
aI21052861
aI21052865
aI21053017
aI21053020
aI21053091
aI21053096
aI21053097
aI21053098
aI21053099
aI21053100
aI21053101
aI21053177
aI21053194
aI21053196
aI21053204
aI21053252
aI21053256
aI21053257
aI21053269
aI21053318
aI21053346
aI21053347
aI21053349
aI21053350
aI21053366
aI21053529
aI21053578
aI21053603
aI21053646
aI21053662
aI21053676
aI21053680
aI21053736
aI21053777
aI21054000
aI21054023
aI21054093
aI21054135
aI21054151
aI21054188
aI21054189
aI21054289
aI21054300
aI21054361
aI21054363
aI21054499
aI21054564
aI21054593
aI21054649
aI21054685
aI21054690
aI21054691
aI21054713
aI21054714
aI21054741
aI21054772
aI21054781
aI21054785
aI21054801
aI21054829
aI21054842
aI21054843
aI21054844
aI21054855
aI21054856
aI21054864
aI21054991
aI21055161
aI21055325
aI21055393
aI21055410
aI21055463
aI21055468
aI21055473
aI21055499
aI21055686
aI21055700
aI21055836
aI21055850
aI21055883
aI21055945
aI21055947
aI21055966
aI21055967
aI21055996
aI21056006
aI21056066
aI21056077
aI21056078
aI21056104
aI21056113
aI21056140
aI21056158
aI21056200
aI21056213
aI21056236
aI21056240
aI21056255
aI21056258
aI21056263
aI21056289
aI21056304
aI21056354
aI21056368
aI21056565
aI21056614
aI21056748
aI21056751
aI21056753
aI21056809
aI21056866
aI21056899
aI21056979
aI21057018
aI21057051
aI21057053
aI21057144
aI21057227
aI21057269
aI21057278
aI21057295
aI21057316
aI21057324
aI21057366
aI21057367
aI21057391
aI21057411
aI21057412
aI21057439
aI21057444
aI21057462
aI21057514
aI21057515
aI21057615
aI21057691
aI21057699
aI21057749
aI21057907
aI21057922
aI21057942
aI21057996
aI21058023
aI21058125
aI21058144
aI21058196
aI21058207
aI21058401
aI21058442
aI21058510
aI21058520
aI21058539
aI21058545
aI21058587
aI21058607
aI21058608
aI21058609
aI21058611
aI21058624
aI21058636
aI21058657
aI21058663
aI21058680
aI21058685
aI21058698
aI21058712
aI21058745
aI21058754
aI21058859
aI21058865
aI21058908
aI21058928
aI21058929
aI21058930
aI21058949
aI21058955
aI21059009
aI21059227
aI21059269
aI21059342
aI21059475
aI21059478
aI21059624
aI21059715
aI21059740
aI21059761
aI21059780
aI21059781
aI21059788
aI21059798
aI21059801
aI21059810
aI21059854
aI21059908
aI21059930
aI21059932
aI21059933
aI21059938
aI21059967
aI21059990
aI21059995
aI21060092
aI21060098
aI21060220
aI21060344
aI21060397
aI21060462
aI21060506
aI21060536
aI21060539
aI21060554
aI21060578
aI21060602
aI21060608
aI21060613
aI21060629
aI21060630
aI21060664
aI21060665
aI21060672
aI21060676
aI21060714
aI21060727
aI21060805
aI21060815
aI21060927
aI21060964
aI21060974
aI21061141
aI21061217
aI21061258
aI21061262
aI21061382
aI21061415
aI21061442
aI21061532
aI21061537
aI21061543
aI21061562
aI21061585
aI21061587
aI21061588
aI21061595
aI21061607
aI21061623
aI21061684
aI21061702
aI21061723
aI21061724
aI21061755
aI21061760
aI21061770
aI21061778
aI21061801
aI21061809
aI21061813
aI21061824
aI21061826
aI21061863
aI21061873
aI21061922
aI21061945
aI21061949
aI21062042
aI21062051
aI21062083
aI21062174
aI21062193
aI21062197
aI21062250
aI21062251
aI21062269
aI21062310
aI21062377
aI21062523
aI21062612
aI21062613
aI21062634
aI21062665
aI21062733
aI21062761
aI21062762
aI21062763
aI21062801
aI21063002
aI21063043
aI21063045
aI21063053
aI21063064
aI21063074
aI21063107
aI21063249
aI21063333
aI21063340
aI21063363
aI21063387
aI21063414
aI21063423
aI21063450
aI21063542
aI21063567
aI21063615
aI21063727
aI21063750
aI21063783
aI21063822
aI21063823
aI21063870
aI21063886
aI21063894
aI21063980
aI21064077
aI21064126
aI21064134
aI21064251
aI21064259
aI21064267
aI21064303
aI21064319
aI21064351
aI21064445
aI21064448
aI21064476
aI21064689
aI21064735
aI21064805
aI21064922
aI21064923
aI21064933
aI21064950
aI21065075
aI21065311
aI21065327
aI21065389
aI21065474
aI21065509
aI21065574
aI21065805
aI21065837
aI21065844
aI21066045
aI21066167
aI21066222
aI21066330
aI21066458
aI21066575
aI21066788
aI21066799
aI21066800
aI21066881
aI21066937
aI21066939
aI21067005
aI21067101
aI21067132
aI21067171
aI21067174
aI21067184
aI21067186
aI21067298
aI21067397
aI21067418
aI21067419
aI21067420
aI21067421
aI21067596
aI21067634
aI21067695
aI21067901
aI21067959
aI21068079
aI21068411
aI21068414
aI21068450
aI21068727
aI21068736
aI21068738
aI21068897
aI21069426
aI21069452
aI21069454
aI21069641
aI21069679
aI21069762
aI21070187
aI21070331
aI21070332
aI21070340
aI21070431
aI21070450
aI21070551
aI21070592
aI21070597
aI21070615
aI21070616
aI21070618
aI21070623
aI21070697
aI21070698
aI21070703
aI21070739
aI21071036
aI21071044
aI21071206
aI21071945
aI21071964
aI21071969
aI21072135
aI21072143
aI21072272
aI21073334
aI21073464
aI21073468
aI21073477
aI21073478
aI21073490
aI21073491
aI21073494
aI21073507
aI21073520
aI21073651
aI21073672
aI21073786
aI21073804
aI21073817
aI21075471
aI21075591
aI21075592
aI21075593
aI21075594
aI21075922
aI21075924
aI21075931
aI21075939
aI21075940
aI21076322
aI21076432
aI21082797
aI21082825
aI21082826
aI21082849
aI21083485
aI21083536
aI21083574
aI21083747
aI21083752
aI21083753
aI21083808
aI21083809
aI21083900
aI21083938
aI21084005
aI21084020
aI21084021
aI21084024
aI21084143
aI21084217
aI21084237
aI21084240
aI21084478
aI21084555
aI21084580
aI21084608
aI21084609
aI21084610
aI21084611
aI21084618
aI21084639
aI21084640
aI21084661
aI21084827
aI21084850
aI21084860
aI21084889
aI21085056
aI21085147
aI21085149
aI21085262
aI21085341
aI21085343
aI21085347
aI21085365
aI21085496
aI21085870
aI21085884
aI21085892
aI21086537
aI21086629
aI21086727
aI21086938
aI21087715
aI21088074
aI21088182
aI21088206
aI21088234
aI21088286
aI21088456
aI21088498
aI21088579
aI21088656
aI21089029
aI21089088
aI21089434
aI21089459
aI21089462
aI21089469
aI21089481
aI21089509
aI21089510
aI21089527
aI21089537
aI21089589
aI21089627
aI21089684
aI21089710
aI21089724
aI21089734
aI21089803
aI21089902
aI21089930
aI21089976
aI21089999
aI21090043
aI21090056
aI21090083
aI21090132
aI21090221
aI21090228
aI21090293
aI21090317
aI21090324
aI21090348
aI21090404
aI21090432
aI21090448
aI21090490
aI21090696
aI21090734
aI21090919
aI21091014
aI21091109
aI21091165
aI21091349
aI21091369
aI21091406
aI21091420
aI21091436
aI21091438
aI21091493
aI21091578
aI21091612
aI21091635
aI21091636
aI21091653
aI21091747
aI21091779
aI21091869
aI21091919
aI21091952
aI21091973
aI21091976
aI21091980
aI21092028
aI21092142
aI21092145
aI21092211
aI21092269
aI21092285
aI21092644
aI21092765
aI21092881
aI21093003
aI21093083
aI21093104
aI21093151
aI21093162
aI21093203
aI21093259
aI21093293
aI21093295
aI21093334
aI21093403
aI21093441
aI21093564
aI21093599
aI21093845
aI21093862
aI21093917
aI21093926
aI21093930
aI21093945
aI21093955
aI21093956
aI21093964
aI21093975
aI21093992
aI21094048
aI21094070
aI21094102
aI21094105
aI21094106
aI21094107
aI21094134
aI21094142
aI21094144
aI21094154
aI21094168
aI21094191
aI21094223
aI21094601
aI21094736
aI21094767
aI21094823
aI21095097
aI21095107
aI21095108
aI21095114
aI21095164
aI21095166
aI21095184
aI21095201
aI21095202
aI21095223
aI21095272
aI21095274
aI21095275
aI21095276
aI21095277
aI21095281
aI21095288
aI21095312
aI21095314
aI21095375
aI21095413
aI21095433
aI21095443
aI21095454
aI21095544
aI21095609
aI21095727
aI21095737
aI21095748
aI21095758
aI21095891
aI21095927
aI21095932
aI21095970
aI21095987
aI21096001
aI21096112
aI21096217
aI21096350
aI21096362
aI21096397
aI21096461
aI21096640
aI21096666
aI21096678
aI21096689
aI21096703
aI21096730
aI21096732
aI21096746
aI21096767
aI21096812
aI21096879
aI21096937
aI21096947
aI21096967
aI21096978
aI21096988
aI21097014
aI21097061
aI21097180
aI21097480
aI21097594
aI21097618
aI21097684
aI21097696
aI21097719
aI21097815
aI21098112
aI21098304
aI21098418
aI21098561
aI21098577
aI21098644
aI21098707
aI21098764
aI21098829
aI21098947
aI21099433
aI21099558
aI21099679
aI21099718
aI21099728
aI21099845
aI21099847
aI21099853
aI21099871
aI21099944
aI21099964
aI21100027
aI21100037
aI21100202
aI21100210
aI21100543
aI21100628
aI21100650
aI21100839
aI21100852
aI21100869
aI21100887
aI21100946
aI21100966
aI21100988
aI21100990
aI21101047
aI21101066
aI21101076
aI21101137
aI21101138
aI21101148
aI21101366
aI21101448
aI21101475
aI21101478
aI21101515
aI21101533
aI21101561
aI21101636
aI21101644
aI21101648
aI21101653
aI21101658
aI21101671
aI21101685
aI21101706
aI21101713
aI21101756
aI21101762
aI21101821
aI21101827
aI21101936
aI21101983
aI21101986
aI21101991
aI21101996
aI21101997
aI21102012
aI21102054
aI21102058
aI21102060
aI21102076
aI21102080
aI21102120
aI21102123
aI21102265
aI21102279
aI21102406
aI21102497
aI21102529
aI21102531
aI21102547
aI21102656
aI21102818
aI21102854
aI21102879
aI21102896
aI21102903
aI21102920
aI21102994
aI21103021
aI21103106
aI21103107
aI21103114
aI21103117
aI21103248
aI21103257
aI21103266
aI21103271
aI21103564
aI21103841
aI21103875
aI21103876
aI21103877
aI21103925
aI21103941
aI21103984
aI21103985
aI21103986
aI21104125
aI21104218
aI21104220
aI21104221
aI21104244
aI21104379
aI21104541
aI21104786
aI21105038
aI21105077
aI21105206
aI21105288
aI21105326
aI21105424
aI21105429
aI21105488
aI21105497
aI21105509
aI21105545
aI21105633
aI21105702
aI21105826
aI21105862
aI21105877
aI21105881
aI21105973
aI21105974
aI21105976
aI21106017
aI21106031
aI21106077
aI21106114
aI21106326
aI21106327
aI21106412
aI21106455
aI21106471
aI21106494
aI21106568
aI21106642
aI21106652
aI21106669
aI21106684
aI21106726
aI21106794
aI21106887
aI21107009
aI21107070
aI21107101
aI21107189
aI21107257
aI21107265
aI21107330
aI21107483
aI21107532
aI21107536
aI21107614
aI21107623
aI21107643
aI21107725
aI21107760
aI21107788
aI21107886
aI21108036
aI21108037
aI21108038
aI21108090
aI21108128
aI21108188
aI21108212
aI21108374
aI21108518
aI21108693
aI21109114
aI21109116
aI21109187
aI21109250
aI21109356
aI21109554
aI21109591
aI21109932
aI21109967
aI21110016
aI21110027
aI21110058
aI21110121
aI21110185
aI21110278
aI21110393
aI21110450
aI21110695
aI21110696
aI21110698
aI21110699
aI21110804
aI21110809
aI21110838
aI21110839
aI21110840
aI21110841
aI21110863
aI21110868
aI21110875
aI21110914
aI21110936
aI21110957
aI21110958
aI21110959
aI21110960
aI21110986
aI21111039
aI21111067
aI21111085
aI21111133
aI21111173
aI21111191
aI21111210
aI21111223
aI21111229
aI21111260
aI21111476
aI21111563
aI21111568
aI21111570
aI21111602
aI21111648
aI21111674
aI21111723
aI21111785
aI21111895
aI21111897
aI21111960
aI21111964
aI21112014
aI21112209
aI21112210
aI21112216
aI21112223
aI21112224
aI21112283
aI21112301
aI21112302
aI21112306
aI21112522
aI21112606
aI21112717
aI21112844
aI21112911
aI21112936
aI21112981
aI21113084
aI21113110
aI21113145
aI21113147
aI21113198
aI21113226
aI21113265
aI21113341
aI21113351
aI21113364
aI21113366
aI21113370
aI21113411
aI21113508
aI21113753
aI21113775
aI21113903
aI21113967
aI21114046
aI21114047
aI21114078
aI21114256
aI21114289
aI21114379
aI21114394
aI21114438
aI21114493
aI21114616
aI21114623
aI21114653
aI21114670
aI21114896
aI21114975
aI21114977
aI21114999
aI21115017
aI21115020
aI21115043
aI21115096
aI21115100
aI21115122
aI21115152
aI21115156
aI21115164
aI21115167
aI21115188
aI21115212
aI21115217
aI21115233
aI21115262
aI21115263
aI21115265
aI21115267
aI21115288
aI21115298
aI21115309
aI21115335
aI21115415
aI21115515
aI21115641
aI21115666
aI21115689
aI21115961
aI21116032
aI21116069
aI21116141
aI21116427
aI21116449
aI21116465
aI21116573
aI21116582
aI21116595
aI21116600
aI21116764
aI21117216
aI21117461
aI21117463
aI21117467
aI21117468
aI21117605
aI21117821
aI21118211
aI21118242
aI21118261
aI21118286
aI21118294
aI21118300
aI21118371
aI21118384
aI21118403
aI21118452
aI21118457
aI21118471
aI21118472
aI21118547
aI21118548
aI21118562
aI21118564
aI21118568
aI21118569
aI21118570
aI21118579
aI21118614
aI21118626
aI21118645
aI21118652
aI21118656
aI21118672
aI21118680
aI21118692
aI21118703
aI21118713
aI21118730
aI21118735
aI21118742
aI21118776
aI21118789
aI21118792
aI21118795
aI21118814
aI21118828
aI21118873
aI21118879
aI21118897
aI21119101
aI21119436
aI21119468
aI21119642
aI21119689
aI21119737
aI21119782
aI21119798
aI21119824
aI21119842
aI21119851
aI21119867
aI21119869
aI21119948
aI21119957
aI21119960
aI21119961
aI21119966
aI21120002
aI21120023
aI21120029
aI21120062
aI21120117
aI21120145
aI21120178
aI21120187
aI21120205
aI21120236
aI21120237
aI21120264
aI21120266
aI21120267
aI21120334
aI21120337
aI21120345
aI21120358
aI21120494
aI21120600
aI21120626
aI21120656
aI21120723
aI21120729
aI21120782
aI21120786
aI21120787
aI21120788
aI21120789
aI21120790
aI21120812
aI21120813
aI21120862
aI21120951
aI21120988
aI21120999
aI21121003
aI21121024
aI21121029
aI21121034
aI21121044
aI21121061
aI21121071
aI21121116
aI21121203
aI21121207
aI21121235
aI21121240
aI21121246
aI21121277
aI21121423
aI21121424
aI21121435
aI21121438
aI21121456
aI21121457
aI21121458
aI21121475
aI21121477
aI21121491
aI21121492
aI21121516
aI21121569
aI21121575
aI21121596
aI21121643
aI21121644
aI21121656
aI21121668
aI21121797
aI21121798
aI21121825
aI21121857
aI21121888
aI21122105
aI21122178
aI21122189
aI21122262
aI21122310
aI21122330
aI21122337
aI21122354
aI21122434
aI21122442
aI21122458
aI21122469
aI21122488
aI21122495
aI21122496
aI21122540
aI21122545
aI21122617
aI21122618
aI21122622
aI21122628
aI21122748
aI21122780
aI21122876
aI21122893
aI21122895
aI21122922
aI21122931
aI21122943
aI21122954
aI21122955
aI21122964
aI21122966
aI21122979
aI21123018
aI21123028
aI21123040
aI21123067
aI21123101
aI21123124
aI21123174
aI21123222
aI21123223
aI21123253
aI21123266
aI21123369
aI21123370
aI21123373
aI21123382
aI21123394
aI21123405
aI21123429
aI21123441
aI21123490
aI21123519
aI21123565
aI21123599
aI21123619
aI21123621
aI21123630
aI21123641
aI21123642
aI21123652
aI21123660
aI21123687
aI21123690
aI21123705
aI21123716
aI21123733
aI21123765
aI21123770
aI21123776
aI21123780
aI21123786
aI21123789
aI21123801
aI21123806
aI21123825
aI21123832
aI21123980
aI21124004
aI21124011
aI21124029
aI21124045
aI21124067
aI21124082
aI21124124
aI21124136
aI21124178
aI21124203
aI21124206
aI21124234
aI21124262
aI21124292
aI21124297
aI21124310
aI21124323
aI21124363
aI21124394
aI21124416
aI21124424
aI21124441
aI21124446
aI21124470
aI21124479
aI21124497
aI21124498
aI21124501
aI21124508
aI21124509
aI21124519
aI21124562
aI21124582
aI21124629
aI21124658
aI21124691
aI21124702
aI21124707
aI21124737
aI21124766
aI21124776
aI21124779
aI21124794
aI21124819
aI21124824
aI21124831
aI21124869
aI21124870
aI21124922
aI21124999
aI21125023
aI21125058
aI21125066
aI21125085
aI21125103
aI21125106
aI21125132
aI21125137
aI21125158
aI21125191
aI21125253
aI21125314
aI21125330
aI21125331
aI21125387
aI21125392
aI21125393
aI21125413
aI21125458
aI21125525
aI21125535
aI21125564
aI21125710
aI21125711
aI21125716
aI21125743
aI21125760
aI21125763
aI21125788
aI21125836
aI21125848
aI21125877
aI21125892
aI21125894
aI21125938
aI21125987
aI21126006
aI21126008
aI21126036
aI21126037
aI21126064
aI21126102
aI21126119
aI21126131
aI21126141
aI21126142
aI21126155
aI21126156
aI21126163
aI21126181
aI21126266
aI21126267
aI21126268
aI21126273
aI21126303
aI21126304
aI21126319
aI21126324
aI21126332
aI21126335
aI21126339
aI21126340
aI21126358
aI21126376
aI21126394
aI21126453
aI21126461
aI21126469
aI21126506
aI21126524
aI21126615
aI21126635
aI21126652
aI21126698
aI21126717
aI21126741
aI21126757
aI21126781
aI21126789
aI21126888
aI21126893
aI21126895
aI21126924
aI21126933
aI21126990
aI21127002
aI21127054
aI21127082
aI21127100
aI21127111
aI21127166
aI21127171
aI21127176
aI21127193
aI21127194
aI21127195
aI21127211
aI21127220
aI21127245
aI21127255
aI21127270
aI21127280
aI21127282
aI21127306
aI21127309
aI21127322
aI21127331
aI21127337
aI21127342
aI21127359
aI21127378
aI21127385
aI21127389
aI21127431
aI21127432
aI21127470
aI21127471
aI21127475
aI21127489
aI21127491
aI21127597
aI21127602
aI21127625
aI21127628
aI21127633
aI21127636
aI21127666
aI21127676
aI21127685
aI21127696
aI21127715
aI21127753
aI21127761
aI21127762
aI21127802
aI21127825
aI21127826
aI21127845
aI21127869
aI21127875
aI21127888
aI21127918
aI21127931
aI21127969
aI21127976
aI21128002
aI21128033
aI21128035
aI21128038
aI21128064
aI21128085
aI21128112
aI21128125
aI21128150
aI21128207
aI21128216
aI21128220
aI21128311
aI21128337
aI21128338
aI21128358
aI21128383
aI21128388
aI21128419
aI21128428
aI21128458
aI21128492
aI21128512
aI21128517
aI21128522
aI21128540
aI21128541
aI21128547
aI21128555
aI21128596
aI21128626
aI21128630
aI21128631
aI21128632
aI21128634
aI21128690
aI21128696
aI21128885
aI21128895
aI21128904
aI21128921
aI21128927
aI21128984
aI21129002
aI21129004
aI21129014
aI21129017
aI21129029
aI21129033
aI21129056
aI21129078
aI21129092
aI21129098
aI21129114
aI21129132
aI21129135
aI21129140
aI21129149
aI21129150
aI21129152
aI21129153
aI21129175
aI21129185
aI21129186
aI21129189
aI21129200
aI21129208
aI21129209
aI21129210
aI21129218
aI21129223
aI21129227
aI21129229
aI21129238
aI21129239
aI21129325
aI21129331
aI21129363
aI21129368
aI21129376
aI21129378
aI21129395
aI21129399
aI21129400
aI21129406
aI21129433
aI21129434
aI21129467
aI21129484
aI21129489
aI21129494
aI21129495
aI21129496
aI21129501
aI21129519
aI21129619
aI21129646
aI21129658
aI21129674
aI21129683
aI21129684
aI21129685
aI21129690
aI21129720
aI21129726
aI21129737
aI21129781
aI21129815
aI21129877
aI21129887
aI21129890
aI21129969
aI21130018
aI21130034
aI21130046
aI21130048
aI21130063
aI21130082
aI21130200
aI21130234
aI21130241
aI21130244
aI21130248
aI21130261
aI21130271
aI21130284
aI21130306
aI21130320
aI21130323
aI21130338
aI21130402
aI21130425
aI21130426
aI21130444
aI21130445
aI21130446
aI21130450
aI21130451
aI21130454
aI21130459
aI21130487
aI21130493
aI21130506
aI21130509
aI21130512
aI21130516
aI21130520
aI21130522
aI21130535
aI21130567
aI21130574
aI21130580
aI21130590
aI21130623
aI21130635
aI21130638
aI21130655
aI21130658
aI21130659
aI21130677
aI21130680
aI21130682
aI21130687
aI21130820
aI21130843
aI21130881
aI21130898
aI21130899
aI21130900
aI21130902
aI21130905
aI21130906
aI21130909
aI21130922
aI21130931
aI21130969
aI21130991
aI21131033
aI21131061
aI21131078
aI21131107
aI21131115
aI21131116
aI21131125
aI21131131
aI21131139
aI21131150
aI21131161
aI21131168
aI21131210
aI21131278
aI21131287
aI21131289
aI21131293
aI21131300
aI21131383
aI21131445
aI21131446
aI21131454
aI21131466
aI21131469
aI21131476
aI21131520
aI21131521
aI21131529
aI21131540
aI21131549
aI21131581
aI21131583
aI21131592
aI21131597
aI21131604
aI21131617
aI21131633
aI21131657
aI21131679
aI21131689
aI21131690
aI21131700
aI21131736
aI21131748
aI21131749
aI21131769
aI21131786
aI21131805
aI21131865
aI21131885
aI21131898
aI21131899
aI21131901
aI21131956
aI21131959
aI21131979
aI21131980
aI21131992
aI21131998
aI21132004
aI21132027
aI21132028
aI21132117
aI21132124
aI21132125
aI21132127
aI21132140
aI21132141
aI21132144
aI21132146
aI21132161
aI21132162
aI21132163
aI21132171
aI21132184
aI21132186
aI21132187
aI21132195
aI21132202
aI21132210
aI21132218
aI21132219
aI21132220
aI21132232
aI21132247
aI21132253
aI21132267
aI21132282
aI21132287
aI21132289
aI21132291
aI21132296
aI21132300
aI21132309
aI21132312
aI21132322
aI21132325
aI21132326
aI21132354
aI21132362
aI21132365
aI21132396
aI21132399
aI21132433
aI21132448
aI21132449
aI21132462
aI21132470
aI21132472
aI21132492
aI21132505
aI21132518
aI21132553
aI21132574
aI21132599
aI21132600
aI21132601
aI21132637
aI21132667
aI21132668
aI21132682
aI21132702
aI21132758
aI21132790
aI21132795
aI21132800
aI21132807
aI21132814
aI21132820
aI21132823
aI21132827
aI21132840
aI21132845
aI21132941
aI21132954
aI21132961
aI21132967
aI21132979
aI21132986
aI21133004
aI21133005
aI21133006
aI21133045
aI21133145
aI21133193
aI21133217
aI21133219
aI21133225
aI21133267
aI21133322
aI21133323
aI21133324
aI21133326
aI21133329
aI21133345
aI21133399
aI21133403
aI21133467
aI21133471
aI21133519
aI21133520
aI21133531
aI21133532
aI21133545
aI21133557
aI21133584
aI21133585
aI21133680
aI21133748
aI21133750
aI21133758
aI21133769
aI21133777
aI21133799
aI21133803
aI21133806
aI21133808
aI21133809
aI21133838
aI21133873
aI21133990
aI21133999
aI21134025
aI21134048
aI21134050
aI21134118
aI21134119
aI21134134
aI21134195
aI21134200
aI21134210
aI21134232
aI21134243
aI21134265
aI21134283
aI21134310
aI21134324
aI21134338
aI21134376
aI21134378
aI21134380
aI21134404
aI21134406
aI21134424
aI21134446
aI21134447
aI21134450
aI21134481
aI21134482
aI21134483
aI21134494
aI21134520
aI21134525
aI21134536
aI21134556
aI21134600
aI21134609
aI21134614
aI21134668
aI21134698
aI21134699
aI21134700
aI21134721
aI21134754
aI21134773
aI21134791
aI21134793
aI21134819
aI21134897
aI21134943
aI21134958
aI21134967
aI21134968
aI21134971
aI21134979
aI21135109
aI21135114
aI21135115
aI21135127
aI21135140
aI21135153
aI21135165
aI21135169
aI21135183
aI21135197
aI21135210
aI21135245
aI21135246
aI21135270
aI21135274
aI21135340
aI21135472
aI21135509
aI21135523
aI21135554
aI21135604
aI21135669
aI21135682
aI21135689
aI21135712
aI21135754
aI21135755
aI21135757
aI21135776
aI21135879
aI21135891
aI21135897
aI21135898
aI21135945
aI21135946
aI21135966
aI21135970
aI21136023
aI21136067
aI21136101
aI21136109
aI21136129
aI21136130
aI21136209
aI21136230
aI21136231
aI21136232
aI21136234
aI21136251
aI21136277
aI21136295
aI21136296
aI21136333
aI21136334
aI21136355
aI21136356
aI21136392
aI21136393
aI21136477
aI21136479
aI21136481
aI21136482
aI21136483
aI21136550
aI21136622
aI21136642
aI21136687
aI21136690
aI21136698
aI21136734
aI21136765
aI21136775
aI21136782
aI21136785
aI21136792
aI21136806
aI21136849
aI21136867
aI21136872
aI21136898
aI21136923
aI21136926
aI21136928
aI21137017
aI21137024
aI21137148
aI21137173
aI21137209
aI21137222
aI21137288
aI21137289
aI21137385
aI21137479
aI21137509
aI21137567
aI21137573
aI21137708
aI21137728
aI21137767
aI21137819
aI21137820
aI21137850
aI21137886
aI21138052
aI21138066
aI21138087
aI21138121
aI21138122
aI21138149
aI21138212
aI21138292
aI21138306
aI21138309
aI21138347
aI21138387
aI21138415
aI21138416
aI21138426
aI21138435
aI21138463
aI21138478
aI21138479
aI21138504
aI21138526
aI21138542
aI21138568
aI21138584
aI21138596
aI21138618
aI21138637
aI21138641
aI21138643
aI21138644
aI21138645
aI21138678
aI21138717
aI21138723
aI21138741
aI21138769
aI21138777
aI21138889
aI21138890
aI21138918
aI21138931
aI21138948
aI21138950
aI21138967
aI21138989
aI21139030
aI21139068
aI21139069
aI21139169
aI21139186
aI21139205
aI21139290
aI21139349
aI21139400
aI21139413
aI21139414
aI21139422
aI21139439
aI21139461
aI21139463
aI21139494
aI21139495
aI21139496
aI21139501
aI21139519
aI21139531
aI21139542
aI21139544
aI21139712
aI21139723
aI21139755
aI21139786
aI21139823
aI21139825
aI21139827
aI21139834
aI21139835
aI21139852
aI21139856
aI21139857
aI21139865
aI21139918
aI21139922
aI21139939
aI21139942
aI21139956
aI21139963
aI21139990
aI21140010
aI21140015
aI21140019
aI21140022
aI21140023
aI21140031
aI21140039
aI21140050
aI21140057
aI21140058
aI21140064
aI21140082
aI21140086
aI21140092
aI21140115
aI21140119
aI21140121
aI21140132
aI21140138
aI21140142
aI21140154
aI21140249
aI21140254
aI21140257
aI21140261
aI21140270
aI21140325
aI21140329
aI21140346
aI21140351
aI21140383
aI21140387
aI21140499
aI21140507
aI21140534
aI21140535
aI21140543
aI21140594
aI21140604
aI21140606
aI21140609
aI21140620
aI21140628
aI21140660
aI21140678
aI21140787
aI21140806
aI21140822
aI21140829
aI21140837
aI21140847
aI21140848
aI21140858
aI21140869
aI21140892
aI21140902
aI21140904
aI21140909
aI21141030
aI21141033
aI21141105
aI21141286
aI21141377
aI21141390
aI21141406
aI21141418
aI21141443
aI21141456
aI21141474
aI21141482
aI21141483
aI21141491
aI21141508
aI21141525
aI21141529
aI21141534
aI21141543
aI21141636
aI21141641
aI21141646
aI21141669
aI21141687
aI21141718
aI21141722
aI21141733
aI21141755
aI21141765
aI21141825
aI21141844
aI21141863
aI21141869
aI21141888
aI21141897
aI21141913
aI21142081
aI21142098
aI21142201
aI21142509
aI21142543
aI21142550
aI21142565
aI21142580
aI21142582
aI21142607
aI21142615
aI21142850
aI21142930
aI21143169
aI21143170
aI21143216
aI21143223
aI21143383
aI21143384
aI21143475
aI21143588
aI21143594
aI21143659
aI21143701
aI21143882
aI21143898
aI21143910
aI21143924
aI21143935
aI21143952
aI21143972
aI21144002
aI21144047
aI21144173
aI21144330
aI21144332
aI21144358
aI21144440
aI21144457
aI21144738
aI21144768
aI21145048
aI21145053
aI21145132
aI21145176
aI21145485
aI21145542
aI21145868
aI21146105
aI21146107
aI21146115
aI21146123
aI21146124
aI21146226
aI21146230
aI21146349
aI21146350
aI21146351
aI21146405
aI21146437
aI21146484
aI21146592
aI21146968
aI21147222
aI21147456
aI21147572
aI21147633
aI21147636
aI21147744
aI21147752
aI21147789
aI21148010
aI21148098
aI21148298
aI21148308
aI21148318
aI21148345
aI21148349
aI21148386
aI21148581
aI21148601
aI21148602
aI21148628
aI21148805
aI21148905
aI21148906
aI21148907
aI21148909
aI21148918
aI21149060
aI21149072
aI21149087
aI21149095
aI21149102
aI21149433
aI21149604
aI21149762
aI21150108
aI21150154
aI21150841
aI21151057
aI21151066
aI21151082
aI21151090
aI21151103
aI21151234
aI21151596
aI21152309
aI21152370
aI21152379
aI21152386
aI21152388
aI21152390
aI21152391
aI21153113
aI21153130
aI21153131
aI21153287
aI21154042
aI21154056
aI21154058
aI21154087
aI21154092
aI21154197
aI21154208
aI21154211
aI21154226
aI21154227
aI21154228
aI21154232
aI21154233
aI21154242
aI21154948
aI21154950
aI21155010
aI21155038
aI21155049
aI21160508
aI21160602
aI21160678
aI21161107
aI21161137
aI21161139
aI21161730
aI21161781
aI21161890
aI21161908
aI21161920
aI21161934
aI21161935
aI21161960
aI21161962
aI21162223
aI21162345
aI21162606
aI21162695
aI21162698
aI21162724
aI21162732
aI21162739
aI21162861
aI21163004
aI21163043
aI21163215
aI21163220
aI21163276
aI21163360
aI21163363
aI21163453
aI21163461
aI21163590
aI21163699
aI21163743
aI21163746
aI21163764
aI21163765
aI21163814
aI21163858
aI21163996
aI21164004
aI21164048
aI21164089
aI21164117
aI21164127
aI21164148
aI21164321
aI21164331
aI21164399
aI21164419
aI21164426
aI21164510
aI21164516
aI21164518
aI21164520
aI21164539
aI21164589
aI21164630
aI21164692
aI21164724
aI21164725
aI21164956
aI21165056
aI21165136
aI21165272
aI21165500
aI21165630
aI21165687
aI21165834
aI21165838
aI21166063
aI21166104
aI21166197
aI21166226
aI21166321
aI21166334
aI21166353
aI21166439
aI21166465
aI21166515
aI21166539
aI21166561
aI21166571
aI21166574
aI21166575
aI21166614
aI21166618
aI21166626
aI21166639
aI21166645
aI21166666
aI21166703
aI21166709
aI21166727
aI21166755
aI21166756
aI21166765
aI21166768
aI21166772
aI21166773
aI21166786
aI21166787
aI21166815
aI21166840
aI21166861
aI21166862
aI21166863
aI21166877
aI21166897
aI21166959
aI21166960
aI21166982
aI21167290
aI21167566
aI21167629
aI21167726
aI21167776
aI21167778
aI21167806
aI21167822
aI21167824
aI21167860
aI21167876
aI21168004
aI21168047
aI21168086
aI21168201
aI21168225
aI21168355
aI21168565
aI21168651
aI21168918
aI21168989
aI21168995
aI21168997
aI21169010
aI21169033
aI21169058
aI21169072
aI21169141
aI21169174
aI21169185
aI21169225
aI21169233
aI21169246
aI21169284
aI21169285
aI21169286
aI21169287
aI21169668
aI21169832
aI21169879
aI21169920
aI21170397
aI21170420
aI21170470
aI21170508
aI21170573
aI21170596
aI21170635
aI21170674
aI21170706
aI21170735
aI21170746
aI21170751
aI21170753
aI21170837
aI21170853
aI21170874
aI21170877
aI21170976
aI21171063
aI21171463
aI21171475
aI21171493
aI21172195
aI21172214
aI21172239
aI21172249
aI21172355
aI21172407
aI21172451
aI21172495
aI21172585
aI21172599
aI21172600
aI21172601
aI21172698
aI21172703
aI21172803
aI21172814
aI21172997
aI21173123
aI21173157
aI21173337
aI21173361
aI21173438
aI21173461
aI21173480
aI21173496
aI21173500
aI21173658
aI21173670
aI21173851
aI21173915
aI21173944
aI21173994
aI21173996
aI21174081
aI21174308
aI21174488
aI21174515
aI21174546
aI21174624
aI21174676
aI21174701
aI21174740
aI21174745
aI21174759
aI21174765
aI21174840
aI21175275
aI21175522
aI21175541
aI21175544
aI21175691
aI21175712
aI21175725
aI21175757
aI21175798
aI21175880
aI21175894
aI21175911
aI21175997
aI21176040
aI21176208
aI21176229
aI21176239
aI21176257
aI21176259
aI21176268
aI21176316
aI21176372
aI21176389
aI21176425
aI21176454
aI21176462
aI21176485
aI21176487
aI21176502
aI21176503
aI21176520
aI21176521
aI21176523
aI21176537
aI21176560
aI21176561
aI21176562
aI21176566
aI21176594
aI21176596
aI21176659
aI21176675
aI21176705
aI21176727
aI21176763
aI21176767
aI21176782
aI21176815
aI21176816
aI21176819
aI21176845
aI21176862
aI21176963
aI21176987
aI21177039
aI21177134
aI21177204
aI21177208
aI21177209
aI21177216
aI21177221
aI21177295
aI21177330
aI21177335
aI21177361
aI21177362
aI21177377
aI21177409
aI21177482
aI21177487
aI21177489
aI21177587
aI21177626
aI21177642
aI21177665
aI21177676
aI21177690
aI21177692
aI21177895
aI21177934
aI21178062
aI21178064
aI21178066
aI21178245
aI21178257
aI21178274
aI21178431
aI21178592
aI21178641
aI21178659
aI21178712
aI21178740
aI21178741
aI21178833
aI21178880
aI21178882
aI21179010
aI21179012
aI21179079
aI21179113
aI21179114
aI21179139
aI21179277
aI21179298
aI21179299
aI21179419
aI21179477
aI21179526
aI21179556
aI21179599
aI21179756
aI21179809
aI21179828
aI21179890
aI21179925
aI21179992
aI21180019
aI21180054
aI21180196
aI21180197
aI21180251
aI21180418
aI21180426
aI21180514
aI21180545
aI21180563
aI21180643
aI21181028
aI21181029
aI21181152
aI21181180
aI21181182
aI21181190
aI21181200
aI21181312
aI21181515
aI21181519
aI21181681
aI21181717
aI21181741
aI21181742
aI21181847
aI21181937
aI21181985
aI21182021
aI21182091
aI21182324
aI21182414
aI21182435
aI21182519
aI21182628
aI21182661
aI21182737
aI21182760
aI21182769
aI21183096
aI21183102
aI21183273
aI21183344
aI21183608
aI21183634
aI21183647
aI21183736
aI21183742
aI21183743
aI21183752
aI21183757
aI21183758
aI21183762
aI21183783
aI21183793
aI21183871
aI21184016
aI21184091
aI21184099
aI21184139
aI21184164
aI21184166
aI21184197
aI21184255
aI21184265
aI21184484
aI21184489
aI21184497
aI21184501
aI21184507
aI21184562
aI21184675
aI21184878
aI21184880
aI21184881
aI21184956
aI21184966
aI21184986
aI21184991
aI21185097
aI21185140
aI21185142
aI21185153
aI21185162
aI21185170
aI21185177
aI21185206
aI21185230
aI21185275
aI21185282
aI21185487
aI21185500
aI21185558
aI21185576
aI21185582
aI21185589
aI21185703
aI21185841
aI21185851
aI21185876
aI21185891
aI21185911
aI21185974
aI21186117
aI21186213
aI21186261
aI21186276
aI21186285
aI21186333
aI21186341
aI21186388
aI21186403
aI21186404
aI21186480
aI21186481
aI21186506
aI21186508
aI21186568
aI21186628
aI21186738
aI21186802
aI21186823
aI21186890
aI21186901
aI21186904
aI21186937
aI21186972
aI21186988
aI21186999
aI21187000
aI21187039
aI21187041
aI21187078
aI21187079
aI21187113
aI21187168
aI21187171
aI21187172
aI21187195
aI21187284
aI21187317
aI21187385
aI21187451
aI21187491
aI21187621
aI21187629
aI21187675
aI21187676
aI21187677
aI21187695
aI21187712
aI21187713
aI21187781
aI21187849
aI21187856
aI21187857
aI21187921
aI21187943
aI21188009
aI21188027
aI21188032
aI21188045
aI21188069
aI21188084
aI21188150
aI21188171
aI21188181
aI21188367
aI21188378
aI21188380
aI21188401
aI21188415
aI21188434
aI21188441
aI21188509
aI21188541
aI21188557
aI21188571
aI21188599
aI21188601
aI21188624
aI21188645
aI21188742
aI21188794
aI21188806
aI21188826
aI21188842
aI21188874
aI21188885
aI21188895
aI21188900
aI21188904
aI21188924
aI21189003
aI21189021
aI21189025
aI21189054
aI21189175
aI21189185
aI21189186
aI21189239
aI21189243
aI21189292
aI21189328
aI21189359
aI21189445
aI21189479
aI21189565
aI21189576
aI21189592
aI21189603
aI21189662
aI21189664
aI21189706
aI21189717
aI21189730
aI21189835
aI21189856
aI21189982
aI21189999
aI21190000
aI21190009
aI21190026
aI21190030
aI21190062
aI21190069
aI21190078
aI21190128
aI21190189
aI21190215
aI21190322
aI21190334
aI21190352
aI21190370
aI21190371
aI21190373
aI21190406
aI21190408
aI21190415
aI21190416
aI21190422
aI21190434
aI21190435
aI21190439
aI21190440
aI21190443
aI21190453
aI21190467
aI21190477
aI21190507
aI21190508
aI21190516
aI21190528
aI21190536
aI21190539
aI21190555
aI21190557
aI21190563
aI21190682
aI21191085
aI21191096
aI21191104
aI21191195
aI21191220
aI21191267
aI21191297
aI21191418
aI21191450
aI21191452
aI21191541
aI21191696
aI21191761
aI21191771
aI21191820
aI21191867
aI21191900
aI21191907
aI21191986
aI21192001
aI21192003
aI21192014
aI21192015
aI21192025
aI21192034
aI21192063
aI21192073
aI21192147
aI21192159
aI21192197
aI21192207
aI21192245
aI21192523
aI21192645
aI21192736
aI21192871
aI21192872
aI21192873
aI21192888
aI21192901
aI21192920
aI21192921
aI21192959
aI21192982
aI21193033
aI21193111
aI21193335
aI21193358
aI21193370
aI21193407
aI21193449
aI21193453
aI21193578
aI21193601
aI21193605
aI21193743
aI21193744
aI21193746
aI21193971
aI21194021
aI21194031
aI21194045
aI21194067
aI21194170
aI21194206
aI21194211
aI21194273
aI21194301
aI21194312
aI21194395
aI21194412
aI21194472
aI21194544
aI21194560
aI21194656
aI21194666
aI21194686
aI21194769
aI21194779
aI21194788
aI21194809
aI21194841
aI21194892
aI21195016
aI21195036
aI21195146
aI21195182
aI21195421
aI21195441
aI21195503
aI21195589
aI21195595
aI21195618
aI21195653
aI21195654
aI21195671
aI21195740
aI21195806
aI21195822
aI21195848
aI21195849
aI21195851
aI21195873
aI21195995
aI21195996
aI21196031
aI21196034
aI21196040
aI21196041
aI21196068
aI21196110
aI21196139
aI21196153
aI21196216
aI21196258
aI21196312
aI21196317
aI21196318
aI21196323
aI21196324
aI21196325
aI21196329
aI21196391
aI21196411
aI21196435
aI21196451
aI21196456
aI21196465
aI21196471
aI21196597
aI21196601
aI21196608
aI21196618
aI21196635
aI21196657
aI21196665
aI21196699
aI21196741
aI21196743
aI21196746
aI21196769
aI21196792
aI21196836
aI21196839
aI21196843
aI21196844
aI21196845
aI21196853
aI21196854
aI21196856
aI21196866
aI21196872
aI21196910
aI21196950
aI21196951
aI21196993
aI21196994
aI21196995
aI21196999
aI21197037
aI21197061
aI21197070
aI21197071
aI21197208
aI21197264
aI21197272
aI21197279
aI21197287
aI21197364
aI21197384
aI21197386
aI21197434
aI21197479
aI21197486
aI21197506
aI21197518
aI21197593
aI21197657
aI21197659
aI21197683
aI21197692
aI21197695
aI21197704
aI21197705
aI21197711
aI21197722
aI21197723
aI21197724
aI21197758
aI21197881
aI21197974
aI21198032
aI21198033
aI21198034
aI21198052
aI21198122
aI21198133
aI21198186
aI21198223
aI21198244
aI21198270
aI21198279
aI21198307
aI21198318
aI21198376
aI21198391
aI21198553
aI21198580
aI21198600
aI21198667
aI21198704
aI21198740
aI21198829
aI21198884
aI21198890
aI21198919
aI21199077
aI21199088
aI21199094
aI21199116
aI21199133
aI21199329
aI21199331
aI21199349
aI21199354
aI21199355
aI21199371
aI21199423
aI21199442
aI21199449
aI21199478
aI21199560
aI21199569
aI21199588
aI21199657
aI21199681
aI21199841
aI21199849
aI21199883
aI21199909
aI21200040
aI21200041
aI21200078
aI21200131
aI21200160
aI21200216
aI21200244
aI21200299
aI21200300
aI21200584
aI21200691
aI21200693
aI21200722
aI21200828
aI21200829
aI21200831
aI21200878
aI21200886
aI21200907
aI21200934
aI21201085
aI21201088
aI21201121
aI21201142
aI21201262
aI21201268
aI21201289
aI21201298
aI21201339
aI21201373
aI21201439
aI21201440
aI21201467
aI21201502
aI21201506
aI21201534
aI21201722
aI21201724
aI21201772
aI21201784
aI21201841
aI21201843
aI21201849
aI21201877
aI21201882
aI21201928
aI21201938
aI21201952
aI21201985
aI21202012
aI21202074
aI21202101
aI21202145
aI21202166
aI21202195
aI21202208
aI21202241
aI21202275
aI21202283
aI21202310
aI21202351
aI21202578
aI21202667
aI21202693
aI21202734
aI21202747
aI21202769
aI21202855
aI21202867
aI21202922
aI21202948
aI21203055
aI21203056
aI21203057
aI21203063
aI21203133
aI21203151
aI21203179
aI21203206
aI21203208
aI21203212
aI21203268
aI21203659
aI21203660
aI21203716
aI21203773
aI21203934
aI21203953
aI21203972
aI21204063
aI21204112
aI21204117
aI21204139
aI21204163
aI21204165
aI21204269
aI21204276
aI21204291
aI21204306
aI21204322
aI21204388
aI21204419
aI21204433
aI21204535
aI21204579
aI21204580
aI21204663
aI21204715
aI21204744
aI21204763
aI21204776
aI21204818
aI21204835
aI21204859
aI21204879
aI21204896
aI21204985
aI21205041
aI21205104
aI21205115
aI21205152
aI21205156
aI21205168
aI21205203
aI21205209
aI21205269
aI21205273
aI21205315
aI21205318
aI21205319
aI21205322
aI21205339
aI21205364
aI21205374
aI21205377
aI21205387
aI21205461
aI21205463
aI21205509
aI21205619
aI21205757
aI21205765
aI21205826
aI21205908
aI21205909
aI21205910
aI21205931
aI21205946
aI21205948
aI21205957
aI21206002
aI21206027
aI21206037
aI21206038
aI21206040
aI21206069
aI21206077
aI21206091
aI21206098
aI21206192
aI21206219
aI21206229
aI21206240
aI21206241
aI21206288
aI21206377
aI21206461
aI21206502
aI21206535
aI21206673
aI21206674
aI21206704
aI21206718
aI21206738
aI21206747
aI21206765
aI21206803
aI21206849
aI21206867
aI21206872
aI21206873
aI21206875
aI21206876
aI21206903
aI21206925
aI21206934
aI21206947
aI21206967
aI21206970
aI21206984
aI21206992
aI21207004
aI21207066
aI21207080
aI21207085
aI21207096
aI21207112
aI21207141
aI21207142
aI21207244
aI21207248
aI21207249
aI21207253
aI21207280
aI21207282
aI21207283
aI21207355
aI21207370
aI21207376
aI21207405
aI21207441
aI21207471
aI21207498
aI21207528
aI21207550
aI21207551
aI21207554
aI21207626
aI21207645
aI21207653
aI21207672
aI21207698
aI21207714
aI21207791
aI21207909
aI21207946
aI21207947
aI21207949
aI21207991
aI21207993
aI21207996
aI21208022
aI21208028
aI21208043
aI21208081
aI21208205
aI21208278
aI21208302
aI21208308
aI21208348
aI21208389
aI21208412
aI21208417
aI21208590
aI21208620
aI21208624
aI21208628
aI21208661
aI21208681
aI21208684
aI21208710
aI21208766
aI21208768
aI21208844
aI21208845
aI21208885
aI21208976
aI21209012
aI21209102
aI21209155
aI21209190
aI21209254
aI21209299
aI21209326
aI21209361
aI21209378
aI21209391
aI21209483
aI21209495
aI21209497
aI21209504
aI21209539
aI21209546
aI21209564
aI21209597
aI21209652
aI21209779
aI21209797
aI21209866
aI21209870
aI21209893
aI21209914
aI21209923
aI21209931
aI21209938
aI21209946
aI21209949
aI21210047
aI21210053
aI21210054
aI21210056
aI21210076
aI21210145
aI21210205
aI21210227
aI21210245
aI21210256
aI21210347
aI21210356
aI21210385
aI21210386
aI21210392
aI21210407
aI21210408
aI21210432
aI21210434
aI21210440
aI21210441
aI21210480
aI21210482
aI21210513
aI21210541
aI21210556
aI21210573
aI21210608
aI21210628
aI21210651
aI21210685
aI21210687
aI21210712
aI21210749
aI21210808
aI21210827
aI21211025
aI21211117
aI21211176
aI21211239
aI21211246
aI21211266
aI21211403
aI21211462
aI21211480
aI21211481
aI21211482
aI21211483
aI21211521
aI21211544
aI21211728
aI21211901
aI21212164
aI21212187
aI21212216
aI21212344
aI21212418
aI21212470
aI21212492
aI21212521
aI21212702
aI21212989
aI21212991
aI21213018
aI21213032
aI21213079
aI21213135
aI21213154
aI21213280
aI21213490
aI21213700
aI21213750
aI21213847
aI21213848
aI21213860
aI21214471
aI21214578
aI21214940
aI21215457
aI21217383
a.