(lp0
I1797613
aI2249635
aI2315095
aI4043692
aI4284009
aI4664315
aI5245390
aI5256635
aI5420103
aI5479809
aI5579736
aI6229768
aI6645103
aI8039800
aI8458565
aI8848995
aI9951252
aI14183321
aI17201185
aI19225865
aI19226351
aI19378224
aI19615736
aI19651391
aI20697940
aI21049149
aI21172225
aI21342665
aI21564619
aI21584633
aI21800948
aI22888898
aI23694241
aI23911568
aI24291947
aI27291010
aI27428734
aI100246272
aI100266738
aI100290348
aI100302225
aI100353316
aI100370679
aI100468103
aI100621193
aI100666690
aI100735553
aI100735567
aI100737032
aI100737172
aI100737863
aI100750500
aI100753337
aI100766999
aI100771108
aI100772402
aI100776824
aI100782012
aI100782687
aI100783983
aI100836458
aI100843585
aI100853493
aI100856004
aI100868501
aI100869064
aI100870730
aI100872530
aI100877589
aI100880748
aI100886155
aI100886546
aI100898244
aI100900401
aI100902852
aI100917837
aI100929591
aI100938392
aI100951776
aI100982277
aI101012116
aI101070697
aI101101365
aI101132760
aI372353614
aI379395415
aI384399758
aI385919493
aI395096736
aI415206413
aI415606289
aI417200582
aI419261235
aI422853458
aI427555239
aI446731636
aI447313708
aI452176796
aI460033035
aI460275163
aI467067151
aI470853087
aI489454663
aI490655927
aI517588534
aI517974337
aI521635095
aI531761928
aI564142575
aI564713751
aI574727794
aI577700263
aI594402673
aI600376685
aI634896669
aI635206028
aI638143733
aI639388447
aI654897864
aI658779759
aI672984826
aI681580740
aI685872176
aI699418370
aI732590785
aI732795490
aI736536022
aI757844897
aI787786130
aI790522884
aI824104400
aI830490089
aI834149344
aI837545884
aI843148930
aI855046551
aI859012637
aI859036160
aI863998476
aI873474116
aI878544976
aI878979615
aI880967714
aI881419775
aI883526507
aI896355503
aI897447840
aI897822623
aI903608173
aI905480305
aI906936224
aI908946675
aI910885169
aI912730838
aI915390036
aI918745741
aI918789910
aI919854496
aI921478733
aI931179407
aI931184779
aI935611812
aI939477167
aI942524806
aI942840578
aI943708006
aI945991259
aI949785353
aI949812115
aI952685843
aI952694580
aI954952106
aI955303915
aI958443443
aI965749240
aI965789238
aI966078986
aI967139095
aI971625893
aI973366293
aI973459062
aI973848045
aI975971537
aI976517523
aI978603244
aI979843190
aI981001429
aI981025209
aI982137241
aI986722176
aI987381870
aI991016529
aI991741985
aI992803939
aI993127678
aI993559495
aI995535374
aI995915747
aI996009814
aI1000001485
aI1000002110
aI1003729896
aI1004350285
aI1010204708
aI1014850829
aI1014854592
aI1016196082
aI1016322929
aI1019583811
aI1020618323
aI1020667989
aI1021464186
aI1021585093
aI1023663634
aI1024455074
aI1024947915
aI1026689855
aI1027668975
aI1027688889
aI1029048389
aI1029356436
aI1032679758
aI1032707234
aI1033529437
aI1035245749
aI1036152564
aI1037765546
aI1039635612
aI1041302831
aI1041667264
aI1044501143
aI1047519172
aI1049505588
aI1052162881
aI1052974929
aI1054303366
aI1056489580
aI1059205450
aI1060506717
aI1061541142
aI1063209091
aI1065408206
aI1066729289
aI1067207935
aI1067530099
aI1068051358
aI1068435609
aI1071507398
aI1071517766
aI1072772627
aI1073548252
aI1076368490
aI1076841336
aI1078206114
aI1078217494
aI1081298819
aI1087192331
aI1101004994
aI1101035219
aI1101052829
aI1101061619
aI1101068906
aI1101072624
aI1101073593
aI1101079046
aI1101079856
aI1101086026
aI1101108997
aI1101111160
aI1101130994
aI1101153231
aI1101195293
aI1101210657
aI1101251429
aI1101253936
aI1101258844
aI1101288360
aI1101326786
aI1101327723
aI1101339893
aI1101730943
aI1101739737
aI1101754838
aI1101781553
aI1101792432
aI1101813242
aI1101817744
aI1101977575
aI1101993103
aI1102009768
aI1102083498
aI1102084661
aI1102085686
aI1102300568
aI1102449643
aI1102503002
aI1102800530
aI1102859462
aI1102908815
aI1102964661
aI1103020883
aI1103079007
aI1103097009
aI1103184403
aI1103190484
aI1103279730
aI1103288394
aI1103293072
aI1103295631
aI1103385669
aI1103396981
aI1103414801
aI1103463899
aI1103465176
aI1103476617
aI1103477485
aI1103518466
aI1103537147
aI1103570510
aI1103578315
aI1103585137
aI1103586360
aI1103589963
aI1103592296
aI1103682860
aI1103727446
aI1103866273
aI1103966657
aI1103990646
aI1103996046
aI1104081998
aI1104119393
aI1104177276
aI1104177756
aI1104199797
aI1104203972
aI1104262090
aI1104294598
aI1104303886
aI1104306484
aI1104331515
aI1104335553
aI1104337768
aI1104357036
aI1104363115
aI1104376468
aI1104478442
aI1104495107
aI1104495521
aI1104503802
aI1104521358
aI1104524285
aI1104548500
aI1104556467
aI1104563571
aI1104594798
aI1104595392
aI1104596611
aI1104617953
aI1104637694
aI1104652444
aI1104653289
aI1104655226
aI1104658198
aI1104663116
aI1104671453
aI1104671776
aI1104674918
aI1104675727
aI1104679338
aI1104687503
aI1104707798
aI1104713413
aI1104724491
aI1104726566
aI1104732739
aI1104735014
aI1104737392
aI1104747083
aI1104749379
aI1104761755
aI1104761849
aI1104762827
aI1104776098
aI1104787311
aI1104787730
aI1104792384
aI1104797872
aI1104798282
aI1104799277
aI1104801233
aI1104813509
aI1104814099
aI1104816419
aI1104820842
aI1104840236
aI1104843693
aI1104849442
aI1104853008
aI1104856198
aI1104860590
aI1104860768
aI1104860882
aI1104861244
aI1104867836
aI1104874803
aI1104877686
aI1104881206
aI1104892011
aI1104901764
aI1104914321
aI1104919982
aI1104922139
aI1104922540
aI1104928230
aI1104934235
aI1104934568
aI1104941153
aI1104942326
aI1104945454
aI1104949539
aI1104958157
aI1104960957
aI1104961015
aI1104964947
aI1104971671
aI1104972235
aI1104974656
aI1104976987
aI1104978770
aI1104980612
aI1104982448
aI1104985435
aI1104986690
aI1105008389
aI1105010350
aI1105012735
aI1105015446
aI1105018355
aI1105018551
aI1105019537
aI1105021359
aI1105031069
aI1105036736
aI1105038570
aI1105041047
aI1105041579
aI1105047011
aI1105050275
aI1105053593
aI1105054321
aI1105054894
aI1105055684
aI1105056949
aI1105060683
aI1105062225
aI1105073563
aI1105073735
aI1105075237
aI1105075975
aI1105076751
aI1105076769
aI1105084898
aI1105086866
aI1105090476
aI1105091036
aI1105094758
aI1105104566
aI1105107985
aI1105110643
aI1105114957
aI1105115244
aI1105116045
aI1105117083
aI1105118107
aI1105118323
aI1105121220
aI1105124621
aI1105125770
aI1105126774
aI1105128524
aI1105131942
aI1105133723
aI1105139778
aI1105139832
aI1105140904
aI1105140997
aI1105144546
aI1105144620
aI1105150781
aI1105155621
aI1105159264
aI1105166447
aI1105167214
aI1105167431
aI1105180872
aI1105182576
aI1105182582
aI1105182628
aI1105183860
aI1105184770
aI1105186586
aI1105190468
aI1105190520
aI1105196118
aI1105198034
aI1105198860
aI1105198904
aI1105202452
aI1105205300
aI1105206104
aI1105208120
aI1105214092
aI1105215914
aI1105223842
aI1105224254
aI1105224518
aI1105225654
aI1105233216
aI1105236084
aI1239629206
aI1534127195
aI1619735865
aI1809851234
aI1925203472
aI2283532209
aI2542086446
aI2678181289
aI2960063858
aI3230289781
aI3311681408
aI3314360238
a.